(dp0
S'CRDY'
p1
(dp2
S'ht'
p3
(dp4
S'erUp'
p5
F0.0054815907434302424
sS'value'
p6
F1.067640086643655
sS'erDown'
p7
F0.005509112740716082
ssS'eta1'
p8
(dp9
g5
F0.005483188629458624
sg6
F1.0689314485367347
sg7
F0.005510934174314253
ssS'eta2'
p10
(dp11
g5
F0.00547952326577561
sg6
F1.0673759702088392
sg7
F0.005506957562704029
ssS'pt_g1'
p12
(dp13
g5
F0.005477986311987149
sg6
F1.0668131967152146
sg7
F0.005505307081155486
ssS'met'
p14
(dp15
g5
F0.005476932930349898
sg6
F1.068762322182203
sg7
F0.005504676907881478
ssS'phi2'
p16
(dp17
g5
F0.00548390736666482
sg6
F1.069176222133901
sg7
F0.005511737940170347
ssS'phi1'
p18
(dp19
g5
F0.00548390736666482
sg6
F1.069176222133901
sg7
F0.005511737940170347
ssS'n_jets'
p20
(dp21
g5
F0.005475515736608649
sg6
F1.0656450626478762
sg7
F0.0055026400174800205
ssS'pt2'
p22
(dp23
g5
F0.005478058563956445
sg6
F1.066828931395364
sg7
F0.005505369408345118
ssS'pt1'
p24
(dp25
g5
F0.005478686662353516
sg6
F1.0671969271431732
sg7
F0.005506090781485229
sss.