(dp0
S'CRDY'
p1
(dp2
S'ht'
p3
(dp4
S'erUp'
p5
F0.0054788158406786636
sS'value'
p6
F1.0667714508180193
sS'erDown'
p7
F0.005506136525009087
ssS'eta1'
p8
(dp9
g5
F0.005478075515943148
sg6
F1.066768530377332
sg7
F0.005505391977851382
ssS'eta2'
p10
(dp11
g5
F0.005476182805386864
sg6
F1.0659405217153168
sg7
F0.005503333923322806
ssS'pt_g1'
p12
(dp13
g5
F0.005476624990831569
sg6
F1.066170775045897
sg7
F0.005503826714319038
ssS'met'
p14
(dp15
g5
F0.005475233509978139
sg6
F1.0679902209186862
sg7
F0.0055028157248644405
ssS'phi2'
p16
(dp17
g5
F0.00547782400423702
sg6
F1.0666309492102681
sg7
F0.005505126456204046
ssS'phi1'
p18
(dp19
g5
F0.00547782400423702
sg6
F1.0666309492102681
sg7
F0.005505126456204046
ssS'n_jets'
p20
(dp21
g5
F0.0054782513654370035
sg6
F1.0660357995839547
sg7
F0.005505451582038079
ssS'pt2'
p22
(dp23
g5
F0.005476483787294706
sg6
F1.0661219872345662
sg7
F0.005503693857423109
ssS'pt1'
p24
(dp25
g5
F0.005476301997744626
sg6
F1.0661961756326102
sg7
F0.005503518485278969
sss.