(dp0
S'CRDY'
p1
(dp2
S'ht'
p3
(dp4
S'erUp'
p5
F0.005477727240918773
sS'value'
p6
F1.0657751743850037
sS'erDown'
p7
F0.005504859113741434
ssS'eta1'
p8
(dp9
g5
F0.0054797525074434805
sg6
F1.0675025621337277
sg7
F0.00550725827155607
ssS'eta2'
p10
(dp11
g5
F0.005477669235889326
sg6
F1.066584187567208
sg7
F0.005504970782807206
ssS'pt_g1'
p12
(dp13
g5
F0.005477049337024864
sg6
F1.0663646793349726
sg7
F0.005504303984769976
ssS'met'
p14
(dp15
g5
F0.005475444904947446
sg6
F1.0681932054316006
sg7
F0.005503071796203685
ssS'phi2'
p16
(dp17
g5
F0.005480580616535002
sg6
F1.067807143292822
sg7
F0.0055080983821345075
ssS'phi1'
p18
(dp19
g5
F0.005480580616535002
sg6
F1.067807143292822
sg7
F0.0055080983821345075
ssS'n_jets'
p20
(dp21
g5
F0.005475515736608649
sg6
F1.0656450626478762
sg7
F0.0055026400174800205
ssS'pt2'
p22
(dp23
g5
F0.005477583271287223
sg6
F1.0666376478059738
sg7
F0.00550488463299037
ssS'pt1'
p24
(dp25
g5
F0.005477310017907966
sg6
F1.0666154498868559
sg7
F0.005504602912108414
sss.