(dp0
S'CRTT'
p1
(dp2
S'm_ll'
p3
(dp4
S'erUp'
p5
F0.022442315266486212
sS'value'
p6
cnumpy.core.multiarray
scalar
p7
(cnumpy
dtype
p8
(S'f8'
p9
I0
I1
tp10
Rp11
(I3
S'<'
p12
NNNI-1
I-1
I0
tp13
bS'>\n\xd7\xa3p=\xea?'
p14
tp15
Rp16
sS'erDown'
p17
F0.0230007859471838
ssS'eta1'
p18
(dp19
g5
F0.02256534507651231
sg6
g7
(g11
S'\x90\xc2\xf5(\\\x8f\xea?'
p20
tp21
Rp22
sg17
F0.023123314022457486
ssS'eta2'
p23
(dp24
g5
F0.022551739027997786
sg6
g7
(g11
S'\x90\xc2\xf5(\\\x8f\xea?'
p25
tp26
Rp27
sg17
F0.023110190004201003
ssS'pt_g1'
p28
(dp29
g5
F0.022566577671442656
sg6
g7
(g11
S'\x90\xc2\xf5(\\\x8f\xea?'
p30
tp31
Rp32
sg17
F0.023123000602557897
ssS'met'
p33
(dp34
g5
F0.022412675976894114
sg6
g7
(g11
S'\xecQ\xb8\x1e\x85\xeb\xe9?'
p35
tp36
Rp37
sg17
F0.022971778130459253
ssS'phi2'
p38
(dp39
g5
F0.022592149763481895
sg6
g7
(g11
S'\xe2z\x14\xaeG\xe1\xea?'
p40
tp41
Rp42
sg17
F0.023149042981408297
ssS'phi1'
p43
(dp44
g5
F0.022592149763481895
sg6
g7
(g11
S'\xe2z\x14\xaeG\xe1\xea?'
p45
tp46
Rp47
sg17
F0.023149042981408297
ssS'ht'
p48
(dp49
g5
F0.022087022655219224
sg6
g7
(g11
S'\x9a\x99\x99\x99\x99\x99\xe9?'
p50
tp51
Rp52
sg17
F0.022661793207209957
ssS'n_jets'
p53
(dp54
g5
F0.022488531366147813
sg6
g7
(g11
S'\xecQ\xb8\x1e\x85\xeb\xe9?'
p55
tp56
Rp57
sg17
F0.023041017411271625
ssS'pt2'
p58
(dp59
g5
F0.022567162896899418
sg6
g7
(g11
S'>\n\xd7\xa3p=\xea?'
p60
tp61
Rp62
sg17
F0.023124074730211275
ssS'pt1'
p63
(dp64
g5
F0.022481363805316623
sg6
g7
(g11
S'>\n\xd7\xa3p=\xea?'
p65
tp66
Rp67
sg17
F0.023039593060313668
sss.