(dp0
S'CRTT'
p1
(dp2
S'm_ll'
p3
(dp4
S'erUp'
p5
F0.022397694529218692
sS'value'
p6
cnumpy.core.multiarray
scalar
p7
(cnumpy
dtype
p8
(S'f8'
p9
I0
I1
tp10
Rp11
(I3
S'<'
p12
NNNI-1
I-1
I0
tp13
bS'\xecQ\xb8\x1e\x85\xeb\xe9?'
p14
tp15
Rp16
sS'erDown'
p17
F0.022955596104149767
ssS'eta1'
p18
(dp19
g5
F0.022504691505058405
sg6
g7
(g11
S'\xecQ\xb8\x1e\x85\xeb\xe9?'
p20
tp21
Rp22
sg17
F0.02306072016862326
ssS'eta2'
p23
(dp24
g5
F0.022513785032060585
sg6
g7
(g11
S'>\n\xd7\xa3p=\xea?'
p25
tp26
Rp27
sg17
F0.023070465368665416
ssS'pt_g1'
p28
(dp29
g5
F0.022502891157735516
sg6
g7
(g11
S'>\n\xd7\xa3p=\xea?'
p30
tp31
Rp32
sg17
F0.023058340464952365
ssS'met'
p33
(dp34
g5
F0.0223861759733871
sg6
g7
(g11
S'\xecQ\xb8\x1e\x85\xeb\xe9?'
p35
tp36
Rp37
sg17
F0.022944240913596037
ssS'phi2'
p38
(dp39
g5
F0.02253547292064806
sg6
g7
(g11
S'\x90\xc2\xf5(\\\x8f\xea?'
p40
tp41
Rp42
sg17
F0.02309230373030946
ssS'phi1'
p43
(dp44
g5
F0.02253547292064806
sg6
g7
(g11
S'\x90\xc2\xf5(\\\x8f\xea?'
p45
tp46
Rp47
sg17
F0.02309230373030946
ssS'ht'
p48
(dp49
g5
F0.022269674982635324
sg6
g7
(g11
S'H\xe1z\x14\xaeG\xe9?'
p50
tp51
Rp52
sg17
F0.022841654321899996
ssS'n_jets'
p53
(dp54
g5
F0.022488531366147813
sg6
g7
(g11
S'\xecQ\xb8\x1e\x85\xeb\xe9?'
p55
tp56
Rp57
sg17
F0.023041017411271625
ssS'pt2'
p58
(dp59
g5
F0.022540792732925197
sg6
g7
(g11
S'\xecQ\xb8\x1e\x85\xeb\xe9?'
p60
tp61
Rp62
sg17
F0.023096677201303373
ssS'pt1'
p63
(dp64
g5
F0.022465199395191204
sg6
g7
(g11
S'>\n\xd7\xa3p=\xea?'
p65
tp66
Rp67
sg17
F0.023022731108253702
sss.