(dp0
S'CRTT'
p1
(dp2
S'm_ll'
p3
(dp4
S'erUp'
p5
F0.022427915932726528
sS'value'
p6
cnumpy.core.multiarray
scalar
p7
(cnumpy
dtype
p8
(S'f8'
p9
I0
I1
tp10
Rp11
(I3
S'<'
p12
NNNI-1
I-1
I0
tp13
bS'\xecQ\xb8\x1e\x85\xeb\xe9?'
p14
tp15
Rp16
sS'erDown'
p17
F0.022984019794369037
ssS'eta1'
p18
(dp19
g5
F0.022484306815608535
sg6
g7
(g11
S'\xecQ\xb8\x1e\x85\xeb\xe9?'
p20
tp21
Rp22
sg17
F0.023039088035595512
ssS'eta2'
p23
(dp24
g5
F0.022490117621518535
sg6
g7
(g11
S'\xecQ\xb8\x1e\x85\xeb\xe9?'
p25
tp26
Rp27
sg17
F0.023045257309577738
ssS'pt_g1'
p28
(dp29
g5
F0.022485520595183828
sg6
g7
(g11
S'\xecQ\xb8\x1e\x85\xeb\xe9?'
p30
tp31
Rp32
sg17
F0.02304072251854572
ssS'met'
p33
(dp34
g5
F0.0224647670897421
sg6
g7
(g11
S'\xecQ\xb8\x1e\x85\xeb\xe9?'
p35
tp36
Rp37
sg17
F0.023019332863394082
ssS'phi2'
p38
(dp39
g5
F0.022481190246472882
sg6
g7
(g11
S'\xecQ\xb8\x1e\x85\xeb\xe9?'
p40
tp41
Rp42
sg17
F0.023036192371501563
ssS'phi1'
p43
(dp44
g5
F0.022481190246472882
sg6
g7
(g11
S'\xecQ\xb8\x1e\x85\xeb\xe9?'
p45
tp46
Rp47
sg17
F0.023036192371501563
ssS'ht'
p48
(dp49
g5
F0.022456491188329597
sg6
g7
(g11
S'\x9a\x99\x99\x99\x99\x99\xe9?'
p50
tp51
Rp52
sg17
F0.023019682308491496
ssS'n_jets'
p53
(dp54
g5
F0.022463251506702475
sg6
g7
(g11
S'\xecQ\xb8\x1e\x85\xeb\xe9?'
p55
tp56
Rp57
sg17
F0.02301735255105475
ssS'pt2'
p58
(dp59
g5
F0.022491889340034654
sg6
g7
(g11
S'\xecQ\xb8\x1e\x85\xeb\xe9?'
p60
tp61
Rp62
sg17
F0.02304628786265961
ssS'pt1'
p63
(dp64
g5
F0.022436773903213858
sg6
g7
(g11
S'\xecQ\xb8\x1e\x85\xeb\xe9?'
p65
tp66
Rp67
sg17
F0.022992643739568663
sss.