(dp0
S'CRZZ'
p1
(dp2
S'm_ll'
p3
(dp4
S'erUp'
p5
F0.06767296979367443
sS'value'
p6
F1.131492798810163
sS'erDown'
p7
F0.07235497344663888
ssS'eta1'
p8
(dp9
g5
F0.07074538234718064
sg6
F1.289937928725166
sg7
F0.07367010597619772
ssS'eta2'
p10
(dp11
g5
F0.07009792891051037
sg6
F1.1846839353016931
sg7
F0.07473560758233688
ssS'ht'
p12
(dp13
g5
F0.07319079133198181
sg6
F1.2848294167239773
sg7
F0.07685705619782945
ssS'met'
p14
(dp15
g5
F0.06924792211868769
sg6
F1.1651027298634584
sg7
F0.0739325669312123
ssS'phi2'
p16
(dp17
g5
F0.07145876736093171
sg6
F1.2413624134582215
sg7
F0.07568361924415767
ssS'phi1'
p18
(dp19
g5
F0.06973968449432277
sg6
F1.2841074467214693
sg7
F0.07167154493877792
ssS'm_ll2'
p20
(dp21
g5
F0.06743068460107504
sg6
F1.1915137753141976
sg7
F0.07249386773221156
ssS'n_jets'
p22
(dp23
g5
F0.06743113039237403
sg6
F1.1091307777701092
sg7
F0.07199869408326487
ssS'pt2'
p24
(dp25
g5
F0.06825753252559008
sg6
F1.1348071839388894
sg7
F0.07288941835446816
ssS'pt1'
p26
(dp27
g5
F0.06958238879410916
sg6
F1.178431994115732
sg7
F0.07422427174723922
sss.