(dp0
S'CRZZ'
p1
(dp2
S'm_ll'
p3
(dp4
S'erUp'
p5
F0.06739067677737687
sS'value'
p6
F1.1154438655571455
sS'erDown'
p7
F0.07199958051789479
ssS'eta1'
p8
(dp9
g5
F0.06989692750029586
sg6
F1.1938009644547838
sg7
F0.07451896172585903
ssS'eta2'
p10
(dp11
g5
F0.06828180235361425
sg6
F1.1345174461923209
sg7
F0.07291861227364693
ssS'ht'
p12
(dp13
g5
F0.07001900522480664
sg6
F1.1806606358526075
sg7
F0.07464366094746056
ssS'met'
p14
(dp15
g5
F0.06880081110213698
sg6
F1.143114022291145
sg7
F0.07344199675697971
ssS'phi2'
p16
(dp17
g5
F0.06938774773218492
sg6
F1.16583827561654
sg7
F0.07405794208552274
ssS'phi1'
p18
(dp19
g5
F0.06948980464362031
sg6
F1.2031840495937487
sg7
F0.07412114197848152
ssS'm_ll2'
p20
(dp21
g5
F0.06745108237787911
sg6
F1.130109800830789
sg7
F0.07212658902010283
ssS'n_jets'
p22
(dp23
g5
F0.06743113039237403
sg6
F1.1091307777701092
sg7
F0.07199869408326487
ssS'pt2'
p24
(dp25
g5
F0.06782756267329937
sg6
F1.1207074981670413
sg7
F0.07242814720877067
ssS'pt1'
p26
(dp27
g5
F0.0687057443411887
sg6
F1.1502002649737373
sg7
F0.07335611108207618
sss.