(dp0
I640
(dp1
I480
F7.93550283188861e-06
sI355
F9.44704969188775e-06
sI580
F6.808483231519183e-06
sI230
F1.7338576806671503e-05
sI455
F9.139432892849429e-06
sI330
F8.4438441999974e-06
sI555
F5.8000023535569215e-06
sI205
F1.5961142405566263e-05
sI430
F1.0514569751962983e-05
sI305
F1.2755942584521381e-05
sI530
F2.2238532156293203e-05
sI405
F8.312663311930342e-06
sI630
F1.0118815261060145e-05
sI280
F1.3738407135922262e-05
sI505
F7.166390977527581e-06
sI380
F9.267430522911625e-06
sI605
F7.66321455014344e-06
sI255
F1.1829716007117852e-05
ssI515
(dp2
I480
F2.718464235588637e-05
sI355
F3.3418621228778317e-05
sI230
F5.314913211052109e-05
sI455
F2.7618578898553347e-05
sI330
F3.0182356470818873e-05
sI205
F3.5297703031524304e-05
sI430
F3.331906334651873e-05
sI305
F3.167484517157917e-05
sI405
F0.00010461694051742517
sI280
F3.5718838707947364e-05
sI505
F3.1258668279674584e-05
sI380
F2.4632290272158334e-05
sI255
F2.7590838953147284e-05
ssI390
(dp3
I355
F0.00013047882635873565
sI230
F0.0001582487098921167
sI330
F0.00013329819493179942
sI205
F0.00019593374164567575
sI305
F9.82612289926265e-05
sI280
F0.0005159199663057942
sI380
F9.476098956480475e-05
sI255
F0.0001467343739175438
ssI265
(dp4
I205
F0.0005183917087288846
sI230
F0.0009131470253989554
sI255
F0.000572448957365185
ssI915
(dp5
I905
F4.775365050913958e-07
sI780
F4.5847185533027224e-07
sI655
F1.041408837878822e-06
sI530
F2.222220375605399e-07
sI405
F1.3139736860600185e-06
sI280
F1.2349461634837006e-06
sI805
F1.9480053231773765e-06
sI680
F1.079138393978215e-06
sI555
F8.887482345643089e-07
sI430
F1.049013757718571e-06
sI305
F7.172830749927777e-07
sI830
F8.672767025219121e-07
sI705
F5.729686148346201e-07
sI580
F7.723729103258678e-07
sI455
F9.812684225839058e-07
sI330
F7.21754040623909e-07
sI205
F1.0956134849024248e-06
sI855
F4.343866531090567e-07
sI730
F8.5670914370148e-07
sI605
F6.932492723217919e-07
sI480
F1.1157300992338114e-06
sI355
F1.378802405978981e-06
sI230
F1.9480153669727173e-06
sI880
F2.784486249202087e-07
sI755
F3.298614087712077e-07
sI630
F4.502270580659714e-07
sI505
F7.361831245621724e-07
sI380
F9.051613777097345e-07
sI255
F1.6872790475722534e-06
ssI790
(dp6
I780
F2.6517895319823604e-06
sI655
F5.946315493459338e-07
sI530
F2.467819665996422e-06
sI405
F2.4514936195394338e-06
sI280
F2.777416713704631e-06
sI680
F4.9572182978275905e-06
sI555
F1.4481088205444586e-06
sI430
F2.285736797182137e-06
sI305
F3.4667962158978307e-06
sI705
F1.605951039815713e-06
sI580
F2.2830222923544765e-06
sI455
F2.555494922577414e-06
sI330
F2.1847169441190243e-06
sI205
F3.0867238268557665e-06
sI730
F7.806954648240877e-07
sI605
F1.7297674391208236e-06
sI480
F3.0486862115171934e-06
sI355
F2.1363139567647657e-06
sI230
F3.470275995186733e-06
sI755
F3.1928252954468405e-06
sI630
F2.631607182459585e-06
sI505
F2.42468247016804e-06
sI380
F2.8410459994466393e-06
sI255
F3.3467956798580117e-06
ssI665
(dp7
I480
F7.1618228298457e-06
sI355
F9.534778135337498e-06
sI580
F5.863470653323983e-06
sI230
F1.0653149762145749e-05
sI455
F6.186558807411987e-06
sI330
F1.0548296438198547e-05
sI555
F1.576176768168897e-05
sI205
F7.544044712935249e-06
sI430
F5.503698876269325e-06
sI655
F7.536374483386322e-06
sI305
F8.522758140060072e-06
sI530
F6.764752676740919e-06
sI405
F7.888233340847756e-06
sI630
F6.760968366785466e-06
sI280
F1.0305057306410523e-05
sI505
F6.219147019314995e-06
sI380
F1.0358019416681367e-05
sI605
F4.7054951207591086e-06
sI255
F1.2220987031562778e-05
ssI540
(dp8
I480
F1.9486288765698727e-05
sI355
F2.6383451266142036e-05
sI230
F3.743547868181943e-05
sI455
F1.9367867748329832e-05
sI330
F3.158806225836477e-05
sI205
F3.0168184266226206e-05
sI430
F7.86393562551957e-05
sI305
F3.064864762372879e-05
sI530
F2.8240382786431493e-05
sI405
F3.017056466793351e-05
sI280
F2.9605899787970862e-05
sI505
F2.5935373468869845e-05
sI380
F2.0113030802559937e-05
sI255
F3.137360777314674e-05
ssI415
(dp9
I355
F0.00010899048129989062
sI230
F0.00013687133345473444
sI330
F8.129536274265492e-05
sI205
F8.980357585238109e-05
sI305
F0.0003841684723076548
sI405
F8.392116373901793e-05
sI280
F9.822877847019405e-05
sI380
F9.929628327788618e-05
sI255
F0.00010871347301798427
ssI290
(dp10
I280
F0.0005275995000998402
sI205
F0.0006260652489770548
sI230
F0.0006244544188248832
sI255
F0.0005990599927268558
ssI940
(dp11
I905
F5.687988148138525e-07
sI780
F5.200932304540679e-07
sI655
F6.654781117838498e-07
sI530
F6.75375621036562e-07
sI405
F1.2958259051788995e-06
sI280
F6.084290539099586e-07
sI930
F1.2170055953968616e-06
sI805
F7.62028251050113e-07
sI680
F5.114055781662744e-07
sI555
F3.553629620479519e-07
sI430
F8.832560949122189e-07
sI305
F8.542069083437027e-07
sI830
F1.1222383570244265e-06
sI705
F5.498005554233442e-07
sI580
F5.401509277310991e-07
sI455
F3.038720979561128e-07
sI330
F1.2878887611819767e-06
sI205
F2.004070170803203e-06
sI855
F9.423930038304227e-07
sI730
F9.92010557983472e-07
sI605
F4.459171957590045e-07
sI480
F5.474701700050338e-07
sI355
F7.100401603144115e-07
sI230
F1.5573922914870613e-06
sI880
F9.96758989753078e-07
sI755
F1.0362695493710774e-06
sI630
F3.2888959478501006e-07
sI505
F7.237678373447711e-07
sI380
F9.195825372643025e-07
sI255
F1.1098915624457857e-06
ssI815
(dp12
I780
F2.604995102807413e-06
sI655
F1.013300027285638e-06
sI530
F2.219874942025857e-06
sI405
F1.3281039777129908e-06
sI280
F1.887702858449979e-06
sI805
F1.357842550723726e-06
sI680
F1.437547091742843e-06
sI555
F2.6009386087703932e-06
sI430
F2.4741452219655517e-06
sI305
F2.222431621172395e-06
sI705
F3.5722749589453642e-06
sI580
F1.8929943034817617e-06
sI455
F2.179061429032482e-06
sI330
F2.03474485999711e-06
sI205
F3.6406399728771666e-06
sI730
F1.2647392862821394e-06
sI605
F1.4635060530676376e-06
sI480
F1.1799672826621522e-06
sI355
F2.4728893519569538e-06
sI230
F2.320491316968115e-06
sI755
F5.249733023587287e-07
sI630
F9.661873983388015e-07
sI505
F9.935434138776578e-07
sI380
F1.4699795865566764e-06
sI255
F2.885485525122109e-06
ssI690
(dp13
I480
F4.75462615248677e-06
sI355
F5.306485562563596e-06
sI580
F1.7681601410219337e-05
sI230
F7.333666714320529e-06
sI455
F7.30917047344628e-06
sI680
F2.2339782024766674e-06
sI330
F6.0749536057798594e-06
sI555
F4.607827111634715e-06
sI205
F7.422858935884583e-06
sI430
F5.667571898979488e-06
sI655
F4.459678916877494e-06
sI305
F7.610051165315432e-06
sI530
F6.385594259962434e-06
sI405
F7.0516986036265815e-06
sI630
F5.747231184537187e-06
sI280
F8.304520865684709e-06
sI505
F7.095161462164221e-06
sI380
F7.612920227792183e-06
sI605
F3.9974250304571306e-06
sI255
F5.757376820178179e-06
ssI565
(dp14
I480
F1.773573528585751e-05
sI355
F2.342664757609361e-05
sI230
F2.125241130812002e-05
sI455
F5.703449026694043e-05
sI330
F1.8861807892078937e-05
sI555
F1.7435068248282387e-05
sI205
F2.470230329990192e-05
sI430
F2.0400214416790527e-05
sI305
F2.509559589100264e-05
sI530
F1.7508767976602395e-05
sI405
F1.8213515806802327e-05
sI280
F2.7811200826198538e-05
sI505
F1.1173060063521454e-05
sI380
F1.581474572807645e-05
sI255
F2.7877937196009954e-05
ssI440
(dp15
I355
F7.33388496639133e-05
sI230
F9.273262058402498e-05
sI330
F0.00027044235453693326
sI205
F9.26736419457814e-05
sI430
F0.00010000179775419119
sI305
F9.235548361588648e-05
sI405
F6.673825644826526e-05
sI280
F8.686393543427259e-05
sI380
F8.20725020641838e-05
sI255
F6.942478248032654e-05
ssI315
(dp16
I280
F0.00044724758476468227
sI305
F0.00026982216924314334
sI205
F0.0017387629070279337
sI230
F0.000298727624762556
sI255
F0.0004608289019115312
ssI965
(dp17
I905
F5.278035709952056e-07
sI780
F2.778995503400552e-07
sI655
F6.682608614258923e-07
sI530
F9.70794220375472e-07
sI405
F1.022455709278499e-06
sI280
F9.900525086247481e-07
sI930
F5.238962915156346e-07
sI805
F4.1607483044289255e-07
sI680
F5.190833766307208e-07
sI555
F2.4542320074910927e-07
sI430
F6.294287058259467e-07
sI305
F3.782317997939964e-07
sI955
F4.1929408249135055e-07
sI830
F5.850675980491397e-07
sI705
F2.3799616971578703e-07
sI580
F7.3589869980163e-07
sI455
F7.100372858745187e-07
sI330
F8.084253025031563e-07
sI205
F7.353563908233462e-07
sI855
F1.245028167725561e-06
sI730
F4.7648130396952683e-07
sI605
F7.104239753245447e-07
sI480
F2.6909137668805375e-07
sI355
F8.621045734950736e-07
sI230
F1.297521514290493e-06
sI880
F5.449715182364498e-07
sI755
F4.2471621484561743e-07
sI630
F4.573236847910466e-07
sI505
F5.551787695326599e-07
sI380
F7.086311553022707e-07
sI255
F6.190848014379977e-07
ssI840
(dp18
I780
F1.226024566792828e-06
sI655
F1.4261123144636283e-06
sI530
F1.78722526499433e-06
sI405
F2.261500129171516e-06
sI280
F2.9336025054124075e-06
sI805
F1.7209255505870248e-06
sI680
F1.123289852228346e-06
sI555
F1.318740475113953e-06
sI430
F1.9836374026748226e-06
sI305
F2.6406482584668233e-06
sI830
F1.2800131129883243e-06
sI705
F8.993855244500423e-07
sI580
F1.2435556571662008e-06
sI455
F2.6103808703234314e-06
sI330
F2.5701619168891194e-06
sI205
F2.4411157957024178e-06
sI730
F3.201357514724568e-06
sI605
F8.851234699050945e-07
sI480
F2.0849760108192837e-06
sI355
F1.6721159093461617e-06
sI230
F1.9810901259085593e-06
sI755
F1.7123148076860037e-06
sI630
F1.4547205928583213e-06
sI505
F1.9079182530572103e-06
sI380
F1.8695666397866472e-06
sI255
F2.674519866783831e-06
ssI715
(dp19
I480
F3.449777687560942e-06
sI705
F3.375225952822626e-06
sI355
F4.887424730454447e-06
sI580
F3.55776095244643e-06
sI230
F5.477793576488161e-06
sI455
F3.546660712224653e-06
sI680
F2.6032061791717097e-06
sI330
F4.248579278661297e-06
sI555
F2.899445343904245e-06
sI205
F8.201240424751078e-06
sI430
F4.8711763956963865e-06
sI655
F3.732248318723371e-06
sI305
F5.045996126834757e-06
sI530
F3.944627859089377e-06
sI405
F5.762027195647468e-06
sI630
F3.855175917813143e-06
sI280
F6.351048317150096e-06
sI505
F5.302399110566899e-06
sI380
F5.167925628357865e-06
sI605
F9.128550596105892e-06
sI255
F6.76073857636756e-06
ssI590
(dp20
I480
F3.712439426162324e-05
sI355
F1.8472918100253715e-05
sI580
F1.550059985410436e-05
sI230
F1.902823281737544e-05
sI455
F1.6429827826805083e-05
sI330
F1.3075202075527699e-05
sI555
F1.6685689146004904e-05
sI205
F1.9281812607483348e-05
sI430
F1.1366035460089393e-05
sI305
F2.266548338788513e-05
sI530
F1.3439507017950314e-05
sI405
F1.4424507247931615e-05
sI280
F1.7627608853508774e-05
sI505
F1.5629412063576246e-05
sI380
F1.992583566270678e-05
sI255
F1.9980174106781013e-05
ssI465
(dp21
I355
F0.0001784667254229873
sI230
F5.893681302171697e-05
sI455
F4.940775529792595e-05
sI330
F6.0056945576134545e-05
sI205
F7.328244324584248e-05
sI430
F4.680070494304743e-05
sI305
F6.259945367056656e-05
sI405
F5.6364058414196356e-05
sI280
F7.184242760390699e-05
sI380
F5.797452508791993e-05
sI255
F6.365021039540397e-05
ssI340
(dp22
I230
F0.001333092383984415
sI330
F0.0002512597799577575
sI205
F0.00033388977055352396
sI305
F0.0002900254061883273
sI280
F0.00024316181493368817
sI255
F0.0002971397187440776
ssI215
(dp23
I205
F0.00157879002546892
ssI990
(dp24
I905
F2.078299058546097e-07
sI780
F3.0699027779477834e-07
sI655
F1.6468518897474962e-07
sI530
F4.042622679250698e-07
sI405
F3.4202438453383633e-07
sI280
F1.1544919034121934e-06
sI930
F1.3203414123890613e-07
sI805
F4.367586850296416e-07
sI680
F3.3072671057733287e-07
sI555
F4.594704096621951e-07
sI430
F8.468940408245385e-07
sI305
F5.909882299209386e-07
sI955
F4.46937931342702e-07
sI830
F6.447776467498326e-07
sI705
F6.665971860104288e-07
sI580
F4.119943895239598e-07
sI455
F5.272308634808184e-07
sI330
F7.451283520238031e-07
sI205
F8.35077326013389e-07
sI980
F6.321726339513606e-07
sI855
F2.66781015095316e-07
sI730
F1.2625159073574643e-07
sI605
F4.6760223645480994e-07
sI480
F4.435089783332728e-07
sI355
F6.052930149298481e-07
sI230
F7.124412166896677e-07
sI880
F6.333412587480865e-07
sI755
F4.287782593870454e-07
sI630
F6.416628649559706e-07
sI505
F4.846658076094023e-07
sI380
F6.616280176128322e-07
sI255
F8.551365829164501e-07
ssI865
(dp25
I780
F1.0216382582028974e-06
sI655
F8.595476693934767e-07
sI530
F1.8187949679635674e-06
sI405
F1.6744337042871836e-06
sI280
F1.7140341201680254e-06
sI805
F1.113684689033239e-06
sI680
F1.3687699717881027e-06
sI555
F1.2902789623473092e-06
sI430
F2.024723706628387e-06
sI305
F1.061984845010063e-06
sI830
F8.535861592141243e-07
sI705
F1.0180194403822501e-06
sI580
F1.4267693901062789e-06
sI455
F1.7882536241824094e-06
sI330
F1.2017417790616965e-06
sI205
F2.1284090575866897e-06
sI855
F7.43593729853122e-07
sI730
F7.762673884870776e-07
sI605
F8.810573129401809e-07
sI480
F1.5230082738100188e-06
sI355
F2.144067626686158e-06
sI230
F1.9655235739980152e-06
sI755
F2.734542992746963e-06
sI630
F1.2878236435523615e-06
sI505
F7.873087118828574e-07
sI380
F1.098508845620456e-06
sI255
F9.065387279035716e-07
ssI740
(dp26
I655
F3.8156844005064875e-06
sI530
F4.042295354123653e-06
sI405
F4.5771285680115e-06
sI280
F3.3675327107505527e-06
sI680
F2.7570083358324304e-06
sI555
F3.736530229459051e-06
sI430
F4.252034223619749e-06
sI305
F5.968042827571673e-06
sI705
F3.2051144990401652e-06
sI580
F5.562352168142633e-06
sI455
F4.073985796477623e-06
sI330
F3.698093268821333e-06
sI205
F3.6766660821324805e-06
sI730
F2.8402494605624068e-06
sI605
F2.670023596799457e-06
sI480
F3.007794208159747e-06
sI355
F3.733499666017479e-06
sI230
F5.331363995814774e-06
sI630
F6.526959953408122e-06
sI505
F4.034368315328374e-06
sI380
F4.515813147515844e-06
sI255
F5.410947001332982e-06
ssI615
(dp27
I480
F8.066747235458512e-06
sI355
F1.0535357418945877e-05
sI580
F1.2053824384081696e-05
sI230
F1.646590369543136e-05
sI455
F1.1390051935855476e-05
sI330
F1.4167493261954741e-05
sI555
F1.4720611616505434e-05
sI205
F1.3191505247934952e-05
sI430
F1.378345961502742e-05
sI305
F1.5256769753127036e-05
sI530
F1.0387575447131847e-05
sI405
F1.1840827562336465e-05
sI280
F1.6826778104025247e-05
sI505
F2.841663307043045e-05
sI380
F1.5012339934101609e-05
sI605
F1.3834765987996209e-05
sI255
F1.5793612866733758e-05
ssI490
(dp28
I480
F3.1860494366746185e-05
sI355
F5.0734258322983385e-05
sI230
F6.045200029234201e-05
sI455
F3.979082102656611e-05
sI330
F4.450534656006295e-05
sI205
F5.5099903101818984e-05
sI430
F4.673569454502911e-05
sI305
F5.67112285222708e-05
sI405
F4.5203620339136586e-05
sI280
F4.6125727787345224e-05
sI380
F0.00014361497467213407
sI255
F5.004715329062707e-05
ssI365
(dp29
I355
F0.0001307076587850146
sI230
F0.0002451763593784799
sI330
F0.00020311632064964075
sI205
F0.00021673619291611126
sI305
F0.00021521080290779534
sI280
F0.00013472249472011997
sI255
F0.0008266462327420065
ssI240
(dp30
I205
F0.0011486192057221472
sI230
F0.0011474077477603554
ssI1015
(dp31
I905
F9.8675132779042e-07
sI780
F8.780153172191815e-08
sI655
F1.1603368190809951e-07
sI530
F1.8112568812509103e-07
sI405
F8.507538932701751e-07
sI280
F2.757100122135156e-07
sI930
F2.161923159805122e-07
sI805
F2.7896509841839756e-07
sI680
F1.657122951567816e-07
sI555
F3.7706712492211567e-07
sI430
F5.117932580453659e-07
sI305
F3.562474486991985e-07
sI955
F8.596776140233894e-08
sI830
F2.231913754666051e-07
sI705
F3.597470635798618e-07
sI580
F4.787003017783599e-07
sI455
F4.163046548788833e-07
sI330
F3.925942917540175e-07
sI205
F3.921487258360236e-07
sI980
F6.732126036034145e-07
sI855
F2.605825279557947e-07
sI730
F3.2848506095867536e-07
sI605
F3.845414577210002e-07
sI480
F3.060303152781921e-07
sI355
F4.380584680834864e-07
sI230
F7.903683719097281e-07
sI1005
F7.483688925071385e-07
sI880
F1.7524668071110484e-07
sI755
F4.049013680708748e-07
sI630
F2.7301316909673825e-07
sI505
F5.553981723855457e-07
sI380
F4.475460446654077e-07
sI255
F7.407991946716263e-07
ssI890
(dp32
I780
F2.5675910655871517e-06
sI655
F1.2613820222570757e-06
sI530
F9.967240441559944e-07
sI405
F1.6320305125858316e-06
sI280
F1.3537260932664422e-06
sI805
F6.588449393782226e-07
sI680
F5.025756255632994e-07
sI555
F1.004646381981632e-06
sI430
F8.388707371240023e-07
sI305
F1.731921644180567e-06
sI830
F6.779382281858666e-07
sI705
F1.1245654087242816e-07
sI580
F1.410559278356215e-06
sI455
F1.3308693260686784e-06
sI330
F2.1678481502801525e-06
sI205
F1.8353621918592135e-06
sI855
F4.777032980329326e-07
sI730
F8.278963994123565e-07
sI605
F1.0727413036292088e-06
sI480
F6.01839666058888e-07
sI355
F1.5671766482167386e-06
sI230
F9.11572761619365e-07
sI880
F1.2041001419142073e-06
sI755
F9.136802888127457e-07
sI630
F9.64380824996009e-07
sI505
F1.4832805565509825e-06
sI380
F1.7656582466447878e-06
sI255
F1.4248561663833647e-06
ssI765
(dp33
I655
F8.692203834725766e-06
sI530
F3.0150638876050675e-06
sI405
F3.4994311225227544e-06
sI280
F5.547401029233443e-06
sI680
F1.524789598574251e-06
sI555
F4.618102766706271e-06
sI430
F2.866849357246938e-06
sI305
F4.0417476976495924e-06
sI705
F1.3574584485908963e-06
sI580
F5.0155843833425694e-06
sI455
F4.13222037393304e-06
sI330
F1.7584975917827343e-06
sI205
F2.6373973447598157e-06
sI730
F2.3069811258132958e-06
sI605
F3.897767823572002e-06
sI480
F2.7370420263874367e-06
sI355
F4.683077586501942e-06
sI230
F4.945317269390887e-06
sI755
F2.713846151642958e-06
sI630
F3.05980994262583e-06
sI505
F9.50777933795527e-07
sI380
F3.621464772120664e-06
sI255
F4.495602006922383e-06
ss.