(dp0
I900
(dp1
I900
F0.008484959731699352
sI650
F0.017537134726643665
sI400
F0.004085509263137652
sI1300
F0.001088556484123233
sI1050
F0.0036718602806200566
sI800
F0.01601121447132873
sI550
F0.0008698467533006442
sI1450
F0.0005122545467864793
sI300
F0.0
sI1200
F0.001746793376282947
sI950
F0.006527663259177868
sI700
F0.02088122762464486
sI450
F0.001781614542917352
sI1350
F0.0008150156333537466
sI200
F0.0
sI1100
F0.0026275230365583897
sI850
F0.011423710077289293
sI600
F0.0004408009170351361
sI1500
F0.0003746683740262692
sI350
F0.004191727301019352
sI1250
F0.0012600560151719805
sI1000
F0.005317427449896648
sI750
F0.01878462400709961
sI500
F0.001975495493283462
sI1400
F0.0005349274462171714
sI250
F0.0
sI1150
F0.0021781027061566482
ssI650
(dp2
I900
F0.009885668979086068
sI650
F0.04629398308772675
sI400
F0.005757816447493105
sI1300
F0.001091592691210969
sI1050
F0.004072338224551476
sI800
F0.016446249481177795
sI550
F0.0672943395396557
sI1450
F0.0005326054972431011
sI300
F0.0
sI1200
F0.0017906266194649078
sI950
F0.007063883517968998
sI700
F0.031491923108911565
sI450
F0.0015603359984674963
sI1350
F0.0009018359443211959
sI200
F0.0
sI1100
F0.0032228391255496943
sI850
F0.01233172642326927
sI600
F0.058957174935599495
sI1500
F0.00040530296442469344
sI350
F0.00776053629509006
sI1250
F0.0012565820372388325
sI1000
F0.005008865730299395
sI750
F0.02171448258446697
sI500
F0.03379062567737601
sI1400
F0.0006401678024047108
sI250
F0.0
sI1150
F0.0021446339322211266
ssI400
(dp3
I900
F0.010648278204245451
sI650
F0.05326690181938238
sI400
F0.3824820322678477
sI1300
F0.001198229580504513
sI1050
F0.004261064441285791
sI800
F0.02007213319681823
sI550
F0.11415667535203934
sI1450
F0.0005706862305592585
sI300
F0.0
sI1200
F0.0018841057365939448
sI950
F0.00713052928996176
sI700
F0.038237847464260906
sI450
F0.2361215599401065
sI1350
F0.0009312529480055741
sI200
F0.0
sI1100
F0.003080342809198972
sI850
F0.014889455524581856
sI600
F0.07754504625518213
sI1500
F0.00046949186753535345
sI350
F0.11823139680193137
sI1250
F0.0014500553469501208
sI1000
F0.005167285036942476
sI750
F0.02334437840673851
sI500
F0.17146127198258646
sI1400
F0.0007241267253999147
sI250
F0.0
sI1150
F0.0025984117930274745
ssI1300
(dp4
I900
F0.00255579088288912
sI650
F0.00026883405682658106
sI400
F0.007560089916722601
sI1300
F0.0009721605689854739
sI1050
F0.003183122414607167
sI800
F0.0
sI550
F0.0009549317836208744
sI1450
F0.0005273367439581529
sI300
F0.0
sI1200
F0.0015918975750927097
sI950
F0.0042915696315161565
sI700
F0.00041275380365684693
sI450
F0.004399889948437034
sI1350
F0.0008099606561983164
sI200
F0.0
sI1100
F0.002422644245145412
sI850
F0.001125766202342788
sI600
F0.0009130462738735365
sI1500
F0.0003976279320134517
sI350
F0.008758073774506402
sI1250
F0.0014755382130059555
sI1000
F0.0031541892999905207
sI750
F0.00012768426250472776
sI500
F0.0017059080839853002
sI1400
F0.0005417641207581753
sI250
F0.0
sI1150
F0.0018070940253843543
ssI1050
(dp5
I900
F0.006400170241865257
sI650
F0.0
sI400
F0.0035119481650726352
sI1300
F0.0011731667186891698
sI1050
F0.003364663553217635
sI800
F0.011948685584150853
sI550
F0.002121731164297556
sI1450
F0.00046875245049243715
sI300
F0.0
sI1200
F0.001485041271163371
sI950
F0.006084121548814181
sI700
F0.0013287706806263254
sI450
F0.0029372765658223447
sI1350
F0.0006885558329903302
sI200
F0.0
sI1100
F0.0030653931158444564
sI850
F0.008699183405332454
sI600
F0.000429516384795438
sI1500
F0.0003957428308382234
sI350
F0.008211229011127957
sI1250
F0.0012854434281242225
sI1000
F0.00436818313689373
sI750
F0.006669977084614493
sI500
F0.0018577849179395626
sI1400
F0.0006718103188984594
sI250
F0.0
sI1150
F0.0022482501882527795
ssI800
(dp6
I900
F0.00939676414174953
sI650
F0.030481169691092512
sI400
F0.002066700386836128
sI1300
F0.001034293441296873
sI1050
F0.0044664893646515465
sI800
F0.012849811673413767
sI550
F0.0007887498239456113
sI1450
F0.0005183876835721143
sI300
F0.0
sI1200
F0.0016538984937957432
sI950
F0.007425143621294806
sI700
F0.028852482266529204
sI450
F0.0025290320181405816
sI1350
F0.0008351613663970945
sI200
F0.0
sI1100
F0.0033518875059442487
sI850
F0.010961752543634563
sI600
F0.02046507588884171
sI1500
F0.00039643327746907833
sI350
F0.0
sI1250
F0.0013910777871528565
sI1000
F0.004566184800979625
sI750
F0.01635729235763208
sI500
F0.0037258673664184385
sI1400
F0.0006454291180600764
sI250
F0.0
sI1150
F0.0021934708325359285
ssI550
(dp7
I900
F0.009803965854610262
sI650
F0.04878031215844391
sI400
F0.004672251449536598
sI1300
F0.0011624071544619181
sI1050
F0.004257401549320312
sI800
F0.019184594173162785
sI550
F0.09595639323659258
sI1450
F0.000555197946194395
sI300
F0.0
sI1200
F0.0017758046822873978
sI950
F0.007590129942312793
sI700
F0.03270455242331542
sI450
F0.09212424288919131
sI1350
F0.0009327363793962803
sI200
F0.0
sI1100
F0.0031838552607196748
sI850
F0.013349237272673344
sI600
F0.06999583459389218
sI1500
F0.0004311164371623054
sI350
F0.0
sI1250
F0.001373069622469371
sI1000
F0.005433883063566017
sI750
F0.027121861951524894
sI500
F0.11668913874082229
sI1400
F0.0006771550795282137
sI250
F0.0
sI1150
F0.002305625185288117
ssI1450
(dp8
I900
F0.00013375252353704003
sI650
F0.0006007464682869548
sI400
F0.0036524853056289315
sI1300
F0.0009845436459401796
sI1050
F0.002216852070814701
sI800
F0.0003032977071237087
sI550
F0.0013554517193730522
sI1450
F0.00041463520664915813
sI300
F0.0
sI1200
F0.001248558852409538
sI950
F0.0012122159086144153
sI700
F0.00045663704141804735
sI450
F0.005518287252691873
sI1350
F0.000776870127326336
sI200
F0.0
sI1100
F0.0026618530761144564
sI850
F0.00016175533728758737
sI600
F0.0
sI1500
F0.00039907579306722467
sI350
F0.011327388553501643
sI1250
F0.001157080152657256
sI1000
F0.002109267031105492
sI750
F0.00013579136352223764
sI500
F0.0005058997342208822
sI1400
F0.0005835425593281233
sI250
F0.0
sI1150
F0.0017552203588746041
ssI300
(dp9
I900
F0.01003331868684008
sI650
F0.04912031086004341
sI400
F0.5259886932748634
sI1300
F0.001158812504225987
sI1050
F0.004205089661393679
sI800
F0.018440146288968517
sI550
F0.11814258383722405
sI1450
F0.0005593404402906453
sI300
F0.4332942053540875
sI1200
F0.0019311240503141092
sI950
F0.007232450543553469
sI700
F0.03303168464153643
sI450
F0.27216270008065785
sI1350
F0.000925838219239712
sI200
F0.0
sI1100
F0.003588922335559017
sI850
F0.012388033178627925
sI600
F0.07339329989765932
sI1500
F0.0004145071946230117
sI350
F0.8695187885367198
sI1250
F0.001382887163834296
sI1000
F0.004885297488210591
sI750
F0.0262742672903196
sI500
F0.18642160041138317
sI1400
F0.000682109103403334
sI250
F0.0
sI1150
F0.0023344965792684138
ssI1200
(dp10
I900
F0.005703879041803325
sI650
F0.0006149607379388009
sI400
F0.005372521521524426
sI1300
F0.001041182106492091
sI1050
F0.0035160762515484504
sI800
F0.002284238689638384
sI550
F0.0006773817834145062
sI1450
F0.00054538922054455
sI300
F0.0
sI1200
F0.0016048842883320215
sI950
F0.0060460098859333785
sI700
F0.00016820227869221397
sI450
F0.0029380637236425216
sI1350
F0.0007452580355457607
sI200
F0.0
sI1100
F0.00253224812019935
sI850
F0.005173251549370467
sI600
F0.0019432174719975009
sI1500
F0.0003484804972263825
sI350
F0.0
sI1250
F0.0014939964254126587
sI1000
F0.004702762231335092
sI750
F0.0002687616537730007
sI500
F0.001339610253338769
sI1400
F0.0006282554730064428
sI250
F0.0
sI1150
F0.002157151068001479
ssI950
(dp11
I900
F0.008098968569711085
sI650
F0.003252036897537167
sI400
F0.0051239347916792995
sI1300
F0.0011378688255739532
sI1050
F0.0037762541731476366
sI800
F0.012904930062841727
sI550
F0.0008929529769545853
sI1450
F0.000554196160343179
sI300
F0.012714453640964905
sI1200
F0.001868736477868867
sI950
F0.006724708004594798
sI700
F0.013278015466185561
sI450
F0.005064849507296468
sI1350
F0.0007577390263029685
sI200
F0.0
sI1100
F0.0028631995713905034
sI850
F0.009920772255977055
sI600
F0.0011062364284034263
sI1500
F0.00044970134512658795
sI350
F0.0
sI1250
F0.001194467834091269
sI1000
F0.004806677186220699
sI750
F0.014321705651125265
sI500
F0.0023930165767038886
sI1400
F0.0006871002333490374
sI250
F0.0
sI1150
F0.002189199704442563
ssI700
(dp12
I900
F0.009173345396360338
sI650
F0.03702723722815288
sI400
F0.0029954700990810377
sI1300
F0.0010709391857798565
sI1050
F0.003943811409835073
sI800
F0.0169180316731315
sI550
F0.04434405643330591
sI1450
F0.0005730813289439373
sI300
F0.0
sI1200
F0.0017737717711208698
sI950
F0.007267611753148962
sI700
F0.028968465075342585
sI450
F0.0019416744855454346
sI1350
F0.0009604759698250101
sI200
F0.0
sI1100
F0.003252115338487059
sI850
F0.01276225976486412
sI600
F0.048089188262285865
sI1500
F0.0004060565834251814
sI350
F0.013775310467855137
sI1250
F0.0013317323821653703
sI1000
F0.004487188752562608
sI750
F0.02353703360960209
sI500
F0.0062527432126477205
sI1400
F0.0006754710736744066
sI250
F0.0
sI1150
F0.002128498435440247
ssI450
(dp13
I900
F0.010237341362584772
sI650
F0.05514456551687543
sI400
F0.1930202864839137
sI1300
F0.001211168492420498
sI1050
F0.004306110387837813
sI800
F0.019926733170044102
sI550
F0.1117817496223033
sI1450
F0.0005790196259445463
sI300
F0.0
sI1200
F0.001750548116893919
sI950
F0.007378278080775409
sI700
F0.03375351865682995
sI450
F0.2317373112431383
sI1350
F0.0008323789152910614
sI200
F0.0
sI1100
F0.0031191703384839077
sI850
F0.014705495406376928
sI600
F0.07594270232317335
sI1500
F0.0004772413113291166
sI350
F0.007993113174272141
sI1250
F0.0015338264768514466
sI1000
F0.0055517799064716995
sI750
F0.024928335755595582
sI500
F0.16610186911639918
sI1400
F0.0007290584072978493
sI250
F0.0
sI1150
F0.0022670344968696863
ssI1350
(dp14
I900
F0.0015941858591234103
sI650
F0.0003025106992055311
sI400
F0.005575515417194771
sI1300
F0.0010035857741232143
sI1050
F0.003202673928682996
sI800
F0.0004027666819926199
sI550
F0.0014253633206329748
sI1450
F0.000519614955243663
sI300
F0.012510999328752503
sI1200
F0.0016529265259600625
sI950
F0.0033410346081021065
sI700
F0.0006164244722392613
sI450
F0.002603189773827135
sI1350
F0.0008017970008487278
sI200
F0.0
sI1100
F0.002622392066556374
sI850
F0.00025221630704328727
sI600
F0.00046020948278280624
sI1500
F0.0003934636246925697
sI350
F0.0048942355899204825
sI1250
F0.0011343692034204717
sI1000
F0.003321730377886292
sI750
F0.00016012822231458704
sI500
F0.001001360360289483
sI1400
F0.0005836480949579263
sI250
F0.0
sI1150
F0.0021461073429832694
ssI200
(dp15
I900
F0.010087827441248936
sI650
F0.04960635637927913
sI400
F0.5256664389330123
sI1300
F0.0011605499777623848
sI1050
F0.003814571295432159
sI800
F0.01594526279848235
sI550
F0.1158894076782983
sI1450
F0.0005519249097050686
sI300
F1.5117224429304732
sI1200
F0.0018087743127404004
sI950
F0.008291304774112808
sI700
F0.03332004840416684
sI450
F0.25883915809109803
sI1350
F0.0009268260227320381
sI200
F0.0
sI1100
F0.0028731847606166265
sI850
F0.013381427847335115
sI600
F0.06719823973532392
sI1500
F0.0004402338468478307
sI350
F0.9182349166112502
sI1250
F0.0014619360001371562
sI1000
F0.005182489795918659
sI750
F0.024808182842686075
sI500
F0.16744665335175346
sI1400
F0.0007397368079094253
sI250
F1.872505170008136
sI1150
F0.0023032835761697115
ssI1100
(dp16
I900
F0.007126887073675622
sI650
F0.001018768226192851
sI400
F0.011966660206511864
sI1300
F0.0011328426849481603
sI1050
F0.00342309814505847
sI800
F0.009086247377540447
sI550
F0.0007821377903947812
sI1450
F0.0005832633128426511
sI300
F0.0
sI1200
F0.0015225275689724888
sI950
F0.006196920615366942
sI700
F0.0006713234489417136
sI450
F0.0029143078875254703
sI1350
F0.0008497090182522713
sI200
F0.0
sI1100
F0.003144470395573592
sI850
F0.008714401853884045
sI600
F0.0010207006327269822
sI1500
F0.00039236767246855466
sI350
F0.004140295871083341
sI1250
F0.0013314684782470357
sI1000
F0.003811543409656518
sI750
F0.0031753886827584022
sI500
F0.0009209124059436091
sI1400
F0.0006319497641524277
sI250
F0.0
sI1150
F0.0020376443704447533
ssI850
(dp17
I900
F0.009069562857851175
sI650
F0.02035107060485175
sI400
F0.0038793700333809044
sI1300
F0.0010200132682866832
sI1050
F0.004099898454188367
sI800
F0.016836236479350918
sI550
F0.0
sI1450
F0.0005341533860697477
sI300
F0.0
sI1200
F0.0018713562310434298
sI950
F0.006381158629123831
sI700
F0.017143025479928856
sI450
F0.0023605936603309195
sI1350
F0.0008234359881677528
sI200
F0.0
sI1100
F0.0027322125739937934
sI850
F0.01089944723707691
sI600
F0.012459625180982257
sI1500
F0.000470305093869064
sI350
F0.0
sI1250
F0.0015346638633980017
sI1000
F0.005395604546957964
sI750
F0.022454383076197227
sI500
F0.00273766122901201
sI1400
F0.0006051557314296964
sI250
F0.0
sI1150
F0.002022642687749763
ssI600
(dp18
I900
F0.008764687642482519
sI650
F0.04580178459847845
sI400
F0.00501249716853826
sI1300
F0.0011624528582346858
sI1050
F0.00407227066013898
sI800
F0.01602056045420005
sI550
F0.08039863653452137
sI1450
F0.0005335965106839472
sI300
F0.0
sI1200
F0.0016479876486291626
sI950
F0.007779457908842642
sI700
F0.032864409957707445
sI450
F0.01834156052120236
sI1350
F0.0009666996012421405
sI200
F0.0
sI1100
F0.0031271503367360626
sI850
F0.01268460276751347
sI600
F0.0627974959670997
sI1500
F0.00041592331240426707
sI350
F0.008086330616613067
sI1250
F0.0013773565299053062
sI1000
F0.005306049412782705
sI750
F0.023956238289486394
sI500
F0.06821399704127935
sI1400
F0.000747633775784989
sI250
F0.0
sI1150
F0.00227920369647221
ssI1500
(dp19
I900
F5.527044286268198e-05
sI650
F0.0003419517377953234
sI400
F0.011905633394408111
sI1300
F0.001028328730578077
sI1050
F0.001765164381667365
sI800
F8.867760365643195e-05
sI550
F0.0024321726953097198
sI1450
F0.00047285965715729647
sI300
F0.0
sI1200
F0.00133327528428505
sI950
F0.00011457699605852594
sI700
F0.0004813362892232649
sI450
F0.0016889882003576673
sI1350
F0.0008169066538499871
sI200
F0.0
sI1100
F0.0021183244071847343
sI850
F0.0001411161013774857
sI600
F0.00040528867259775306
sI1500
F0.0003700057976824195
sI350
F0.00424284698239868
sI1250
F0.0010836384234891082
sI1000
F0.001187985217824125
sI750
F0.00034066537732013014
sI500
F0.0018480703627365058
sI1400
F0.0005866919893923664
sI250
F0.0
sI1150
F0.0019309838838240572
ssI350
(dp20
I900
F0.009798458430923857
sI650
F0.04907796828107023
sI400
F0.4639391056469453
sI1300
F0.0012592666646966805
sI1050
F0.0042645155354119274
sI800
F0.01923573550928697
sI550
F0.11753596002668118
sI1450
F0.0005591260693183111
sI300
F0.01253775674103535
sI1200
F0.0019969957027098683
sI950
F0.007812937319962668
sI700
F0.033936272704920445
sI450
F0.28880022847695186
sI1350
F0.000909555147971562
sI200
F0.0
sI1100
F0.003299820396416039
sI850
F0.013789949955458616
sI600
F0.07362965660655219
sI1500
F0.0004863775590809598
sI350
F0.4658461770325022
sI1250
F0.0014772531740250138
sI1000
F0.005218301988549587
sI750
F0.027160994701557212
sI500
F0.1718114110924127
sI1400
F0.0007129337529350542
sI250
F0.0
sI1150
F0.002253920684351275
ssI1250
(dp21
I900
F0.00402830736564146
sI650
F0.0011820196773263032
sI400
F0.0035662321251889156
sI1300
F0.00110998579620712
sI1050
F0.003304235461670293
sI800
F0.000314058734980204
sI550
F0.0007283922352212124
sI1450
F0.00046989269222208853
sI300
F0.010402982037908421
sI1200
F0.0014048991699050898
sI950
F0.0042573369518509145
sI700
F0.000490520446617281
sI450
F0.004178254837776001
sI1350
F0.000855029547596059
sI200
F0.0
sI1100
F0.0029266804947753657
sI850
F0.0027286690282409746
sI600
F0.000497939925225085
sI1500
F0.00037998152794951103
sI350
F0.0054626092773174765
sI1250
F0.0012325517751920762
sI1000
F0.003936317606491241
sI750
F0.00027843810002668474
sI500
F0.0009811003987097978
sI1400
F0.000572129284948786
sI250
F0.0
sI1150
F0.001896864010201071
ssI1000
(dp22
I900
F0.009348398123597544
sI650
F0.000285131251836077
sI400
F0.0048275211152162285
sI1300
F0.0011385241931031187
sI1050
F0.003392791691489861
sI800
F0.013284356059953978
sI550
F0.0008369043752048324
sI1450
F0.0005327582799530895
sI300
F0.0
sI1200
F0.0014745284515253426
sI950
F0.006546636330601924
sI700
F0.007456010837276383
sI450
F0.007135648664440601
sI1350
F0.0008915548227296983
sI200
F0.0
sI1100
F0.002785532004757931
sI850
F0.010826667630137864
sI600
F0.00047448098381248574
sI1500
F0.0004659264574022562
sI350
F0.0037493974277600637
sI1250
F0.0015170600836448618
sI1000
F0.0046027953628175605
sI750
F0.01497622554959535
sI500
F0.00045405728607622294
sI1400
F0.0006337700364457633
sI250
F0.0
sI1150
F0.0022686674176898573
ssI750
(dp23
I900
F0.008670608125253677
sI650
F0.03819665987664249
sI400
F0.0019555725205289373
sI1300
F0.0011397658555431912
sI1050
F0.0036983907594360984
sI800
F0.01696368267518279
sI550
F0.017982618660829792
sI1450
F0.0005435267153208967
sI300
F0.011275840305936407
sI1200
F0.001582187939078787
sI950
F0.006830084957804181
sI700
F0.02731392952853027
sI450
F0.005026106316725416
sI1350
F0.0008196160121943389
sI200
F0.0
sI1100
F0.002806343933978172
sI850
F0.012263943461276064
sI600
F0.04248973819306757
sI1500
F0.00042772581528696137
sI350
F0.007185879011449481
sI1250
F0.0012857511343412449
sI1000
F0.004884397929443526
sI750
F0.02137902609189062
sI500
F0.0023070753599650014
sI1400
F0.0006607192238810399
sI250
F0.0
sI1150
F0.002343027994428825
ssI500
(dp24
I900
F0.010417028035402377
sI650
F0.04687117365217392
sI400
F0.037814594231868476
sI1300
F0.0011088029240885298
sI1050
F0.0041132666457839705
sI800
F0.019061294247086788
sI550
F0.10164722608496402
sI1450
F0.000598156924378052
sI300
F0.011097298850747695
sI1200
F0.0016773655505602529
sI950
F0.007669787793666086
sI700
F0.0335106345056668
sI450
F0.15457517072711507
sI1350
F0.0009621961229880368
sI200
F0.0
sI1100
F0.003288581828582237
sI850
F0.011747659803415168
sI600
F0.06693389378508426
sI1500
F0.00043003440123435844
sI350
F0.0
sI1250
F0.0014846002997501257
sI1000
F0.005258464459931846
sI750
F0.023851429958921564
sI500
F0.1303412435906797
sI1400
F0.0006343353306485761
sI250
F0.0
sI1150
F0.002451343980505558
ssI1400
(dp25
I900
F0.00032304733275985155
sI650
F0.001106126349624741
sI400
F0.00860206852678696
sI1300
F0.0009245266502946839
sI1050
F0.0029698221251638623
sI800
F8.848922419283808e-05
sI550
F0.0022298911888519258
sI1450
F0.0004965869669443117
sI300
F0.0
sI1200
F0.0014625664825469711
sI950
F0.002014074678410405
sI700
F0.0
sI450
F0.002297639810246428
sI1350
F0.0007088663460396457
sI200
F0.0
sI1100
F0.002917379315129762
sI850
F0.0
sI600
F0.0009536836184962125
sI1500
F0.000396995173889675
sI350
F0.004077413860720453
sI1250
F0.0011648300517174653
sI1000
F0.0028368530105614648
sI750
F0.0005576788512451997
sI500
F0.0029046447172486195
sI1400
F0.0005346080360552061
sI250
F0.0
sI1150
F0.0017090136503628132
ssI250
(dp26
I900
F0.009832167110218849
sI650
F0.05143582145644079
sI400
F0.45526521644687873
sI1300
F0.0012275662399332465
sI1050
F0.00442564257665455
sI800
F0.0183058435961105
sI550
F0.11614567509316523
sI1450
F0.0005617544829112391
sI300
F1.0628597973302725
sI1200
F0.0017698962633664877
sI950
F0.007075271825934817
sI700
F0.02936384141830385
sI450
F0.2866173466198485
sI1350
F0.0009778607156298177
sI200
F0.0
sI1100
F0.003270388460429542
sI850
F0.012300786427761355
sI600
F0.06896633004680168
sI1500
F0.0004261851830588602
sI350
F0.7045560785427648
sI1250
F0.001464886798012305
sI1000
F0.005473744605067635
sI750
F0.025343065898048224
sI500
F0.16076240142944184
sI1400
F0.0006303339401928689
sI250
F0.05541192516539519
sI1150
F0.0024571033484304837
ssI1150
(dp27
I900
F0.006623023991384871
sI650
F0.00027035657471362903
sI400
F0.005224231331102488
sI1300
F0.0009639199357600668
sI1050
F0.00333516889445082
sI800
F0.0041393117031456855
sI550
F0.0014415127912427983
sI1450
F0.0005496501999077191
sI300
F0.0
sI1200
F0.001536008968992094
sI950
F0.00534260539661487
sI700
F0.0
sI450
F0.0008417826523185793
sI1350
F0.000988387783875177
sI200
F0.0
sI1100
F0.003302844824965094
sI850
F0.0064903713281099455
sI600
F0.0
sI1500
F0.00040255933515784666
sI350
F0.004349803727673088
sI1250
F0.0011287113820217499
sI1000
F0.003912173606350179
sI750
F0.0004718377667235209
sI500
F0.0009800319324283773
sI1400
F0.0006426259029109412
sI250
F0.0
sI1150
F0.0021518587830431407
ss.