(dp0
I900
(dp1
I2050
F0.00027468135354731727
sI1800
F0.00047423321438298994
sI1550
F0.0008059508942734352
sI2450
F0.0001151747880245104
sI1300
F0.001431551027331416
sI2200
F0.00018295630463563403
sI1050
F0.0022805619485938076
sI1950
F0.0003644315075315166
sI1700
F0.0005907685286539591
sI1450
F0.001019445934598059
sI2350
F0.00013575394903416507
sI1200
F0.001807098470228066
sI2100
F0.00027086387206421905
sI1850
F0.00042274152027242407
sI1600
F0.0007259340036543284
sI2500
F0.00010757084191854768
sI1350
F0.0012874603174690958
sI2250
F0.0001970492866882392
sI1100
F0.002227717773626693
sI2000
F0.0002905026819152402
sI1750
F0.0005408367476206722
sI1500
F0.0009092023126094965
sI2400
F0.00011724639814257499
sI1250
F0.0015923620260624995
sI2150
F0.00022627819119877253
sI1000
F0.002770254167499458
sI1900
F0.0003528385547054106
sI1650
F0.0006281775038896019
sI1400
F0.001119973095462106
sI2300
F0.00016575305514489414
sI1150
F0.0020497466355618448
ssI650
(dp2
I2050
F0.000432188486933377
sI1800
F0.0009286517515776932
sI1550
F0.0014795610663053732
sI2450
F0.00021755520633381958
sI1300
F0.0030241379947175168
sI2200
F0.00037599892071703994
sI1050
F0.005190080694863994
sI1950
F0.0005577270164820985
sI1700
F0.0012299893755149483
sI1450
F0.0019155068004020736
sI2350
F0.00023934263195299717
sI1200
F0.0029940521129528013
sI2100
F0.0004572653593493847
sI1850
F0.0007928563700048241
sI1600
F0.0012214492302579814
sI2500
F0.00017232300737609203
sI1350
F0.002332573877060652
sI2250
F0.00029761928475997287
sI1100
F0.004698220166489117
sI2000
F0.0005608920947069713
sI1750
F0.000881078755015101
sI1500
F0.0018143098677460198
sI2400
F0.00021897686878851366
sI1250
F0.0031153272280854457
sI2150
F0.00039509357719769394
sI1000
F0.00724364154378963
sI1900
F0.0006691667499677924
sI1650
F0.001252422763607561
sI1400
F0.0020003041392497923
sI2300
F0.0003056583700051659
sI1150
F0.004039955417136801
ssI400
(dp3
I2050
F0.0009546573958022759
sI1800
F0.0015689537702876985
sI1550
F0.002736790716984461
sI2450
F0.0003371471804400949
sI1300
F0.005670658098717141
sI2200
F0.0006431781848585227
sI1050
F0.01314627691719855
sI1950
F0.0011347816556407375
sI1700
F0.00231173135846393
sI1450
F0.0036239163687931454
sI2350
F0.00046361586765518247
sI1200
F0.008030027231409284
sI2100
F0.0008440672180359155
sI1850
F0.0015129410072422132
sI1600
F0.0026652846381588135
sI2500
F0.00032275529779852763
sI1350
F0.005030560538412228
sI2250
F0.0006068287446796195
sI1100
F0.009892388314007083
sI2000
F0.0009815718223517215
sI1750
F0.0018713176928443268
sI1500
F0.0032414711382334495
sI2400
F0.000416432767419419
sI1250
F0.006577276578326028
sI2150
F0.0007150844310859116
sI1000
F0.014729065673989192
sI1900
F0.001212130458218146
sI1650
F0.002332534480118514
sI1400
F0.003980279994384903
sI2300
F0.00048196649849856004
sI1150
F0.008624709135721751
ssI1300
(dp4
I2050
F0.00012415573383113362
sI1800
F0.00020379362648530758
sI1550
F0.00033815660201095497
sI2450
F4.752908201658873e-05
sI1300
F0.0005338476283981604
sI2200
F7.388860082666743e-05
sI1050
F0.0009541675555744235
sI1950
F0.00016497283817446494
sI1700
F0.0002569241122959686
sI1450
F0.0004145319619639852
sI2350
F5.960144820908598e-05
sI1200
F0.000709019109717706
sI2100
F9.186111273639096e-05
sI1850
F0.00017955722192516098
sI1600
F0.0002984337161170828
sI2500
F4.227128942486075e-05
sI1350
F0.0004972491764607919
sI2250
F6.533627080747951e-05
sI1100
F0.0008585717809030682
sI2000
F0.00012412403470906392
sI1750
F0.0001824907538902793
sI1500
F0.00038583430846386236
sI2400
F5.59456200356491e-05
sI1250
F0.0005796906557336611
sI2150
F8.096300386666726e-05
sI1000
F0.001155546892189512
sI1900
F0.00013850563293153095
sI1650
F0.0002452152183307875
sI1400
F0.00046321427517305886
sI2300
F6.559120552977254e-05
sI1150
F0.0006662291840178727
ssI150
(dp5
I2050
F0.0014737095305528912
sI1800
F0.0030608249926403507
sI1550
F0.005734827527049516
sI2450
F0.000589251580062243
sI1300
F0.011785252239741107
sI2200
F0.0010358383910774615
sI1050
F0.026008335913280577
sI1950
F0.0018876007303502554
sI1700
F0.003817502506292853
sI1450
F0.007983605684924991
sI2350
F0.0007914478162357191
sI1200
F0.015478056661706416
sI2100
F0.0014132069438660836
sI1850
F0.0026246423496400382
sI1600
F0.004724290983443791
sI2500
F0.0005426102572584772
sI1350
F0.010058569235662779
sI2250
F0.0008992310243154568
sI1100
F0.01946950739157778
sI2000
F0.001771355132501493
sI1750
F0.0029525417206861552
sI1500
F0.006638722098900023
sI2400
F0.000765008730999758
sI1250
F0.014246254325142845
sI2150
F0.0013472471386322218
sI1000
F0.030491791591135704
sI1900
F0.0021641805898101546
sI1650
F0.004311417483178672
sI1400
F0.009505121286475156
sI2300
F0.0009331664373767221
sI1150
F0.017068230296106938
ssI1050
(dp6
I2050
F0.0001769945228368648
sI1800
F0.0003430323757920468
sI1550
F0.0006156750861958972
sI2450
F8.456908160967045e-05
sI1300
F0.0011061711641485179
sI2200
F0.00014583967539153362
sI1050
F0.0019107224081531173
sI1950
F0.00024294016299609874
sI1700
F0.0003927552071763359
sI1450
F0.0006029167624074532
sI2350
F9.987227965305681e-05
sI1200
F0.0013551368396678704
sI2100
F0.0001745760542253237
sI1850
F0.00032832780337655756
sI1600
F0.0005179020955822367
sI2500
F7.058656337175965e-05
sI1350
F0.0010585704977432912
sI2250
F0.0001286894845443603
sI1100
F0.0016806787190482755
sI2000
F0.00021563820921232188
sI1750
F0.0004040989486288921
sI1500
F0.0006461001055932739
sI2400
F9.38511631462265e-05
sI1250
F0.001110448651534562
sI2150
F0.00015445399779288855
sI1000
F0.0019499407486316402
sI1900
F0.00027046876920260845
sI1650
F0.0005363280331772139
sI1400
F0.0008109189645341681
sI2300
F0.00011365671136168462
sI1150
F0.0014815207402772966
ssI800
(dp7
I2050
F0.00037507570679922136
sI1800
F0.0006269484115799175
sI1550
F0.001123821511464775
sI2450
F0.00013297753912850177
sI1300
F0.001875394013201142
sI2200
F0.00022663255068087072
sI1050
F0.0034384564704022747
sI1950
F0.00047075861045494017
sI1700
F0.0006726653602991393
sI1450
F0.0014403460892147323
sI2350
F0.0001824084632566905
sI1200
F0.0027979109565134113
sI2100
F0.00032442535266573395
sI1850
F0.00047203712489807574
sI1600
F0.000903966904762367
sI2500
F0.00013810699375760852
sI1350
F0.001701484760077284
sI2250
F0.000220127999248904
sI1100
F0.0026419343499213465
sI2000
F0.00035575455119229754
sI1750
F0.0005448478233525124
sI1500
F0.0011501013692679276
sI2400
F0.00016376945484304249
sI1250
F0.0020018816099100084
sI2150
F0.00027502824834275193
sI1000
F0.0038533931111927994
sI1900
F0.0004900662623568082
sI1650
F0.0009165159137650258
sI1400
F0.0016176710157552088
sI2300
F0.00020618046683812708
sI1150
F0.003195156512507373
ssI550
(dp8
I2050
F0.0005849976999977756
sI1800
F0.0010859022878191287
sI1550
F0.0020209910773329224
sI2450
F0.0002633162699809596
sI1300
F0.0036860035136214685
sI2200
F0.000410124550574364
sI1050
F0.007389791659920935
sI1950
F0.0008131887866543889
sI1700
F0.0014430062517692516
sI1450
F0.0023647317032664556
sI2350
F0.0003069605198543597
sI1200
F0.00488207184997674
sI2100
F0.0005129103954642766
sI1850
F0.0009789578657257553
sI1600
F0.0018241557041337292
sI2500
F0.0002154698941498193
sI1350
F0.003196029324251508
sI2250
F0.00039947472502373265
sI1100
F0.0074341351113904365
sI2000
F0.0006912857044217044
sI1750
F0.0012736722339304466
sI1500
F0.002107413137874137
sI2400
F0.00027521333022756205
sI1250
F0.00443088518807604
sI2150
F0.0004959601456212501
sI1000
F0.008619816880827018
sI1900
F0.0009629761052302336
sI1650
F0.0015006707554572145
sI1400
F0.003272462926795519
sI2300
F0.0003730070299685581
sI1150
F0.005579701857175785
ssI1450
(dp9
I2050
F8.707130776189582e-05
sI1800
F0.00013804960476432472
sI1550
F0.0002077606258940484
sI2450
F3.441624767392521e-05
sI1300
F0.00039865822727721726
sI2200
F5.420726608895097e-05
sI1050
F0.0007978396354538695
sI1950
F9.463459563238244e-05
sI1700
F0.000171698769899748
sI1450
F0.0002878790933737771
sI2350
F4.412929969537398e-05
sI1200
F0.0004901891656864473
sI2100
F7.025835680858344e-05
sI1850
F0.00013268114700319269
sI1600
F0.00020594082990510424
sI2500
F3.024188988587802e-05
sI1350
F0.0003266050220368447
sI2250
F5.753328741685718e-05
sI1100
F0.0004834906292273096
sI2000
F9.061960406814144e-05
sI1750
F0.00014471514328442424
sI1500
F0.00024372271824415508
sI2400
F3.546679454689243e-05
sI1250
F0.0004542196897187017
sI2150
F7.483298609528406e-05
sI1000
F0.0008299695997381634
sI1900
F0.00011424132968480129
sI1650
F0.00020032503781696243
sI1400
F0.00028519373693887477
sI2300
F4.7912860677033486e-05
sI1150
F0.0005204204316376922
ssI300
(dp10
I2050
F0.001093743102162944
sI1800
F0.00214924457627976
sI1550
F0.0039724659205305655
sI2450
F0.00048048602067848027
sI1300
F0.008287036138456296
sI2200
F0.0007720657224384599
sI1050
F0.016018749971714173
sI1950
F0.0013679298978066404
sI1700
F0.002817058023685774
sI1450
F0.0049915775655069656
sI2350
F0.0005802086371150661
sI1200
F0.010039884100848637
sI2100
F0.0011116084472108303
sI1850
F0.0018593511318272633
sI1600
F0.003389508819142807
sI2500
F0.0003965408055506549
sI1350
F0.006767590189223638
sI2250
F0.0007605365468027664
sI1100
F0.013909934352583276
sI2000
F0.0012201537280337313
sI1750
F0.0024122540144756025
sI1500
F0.004646421875424255
sI2400
F0.00047187426980346
sI1250
F0.008459084281044282
sI2150
F0.0009089688300098892
sI1000
F0.01937263688961167
sI1900
F0.0015835322243088706
sI1650
F0.002940566432625786
sI1400
F0.005798615770043103
sI2300
F0.0006606424835192666
sI1150
F0.012552133143055694
ssI1200
(dp11
I2050
F0.00013955846086770245
sI1800
F0.00024703832533347385
sI1550
F0.00042152184813371
sI2450
F6.451517384207401e-05
sI1300
F0.0007089140710637242
sI2200
F0.00010939127800386815
sI1050
F0.001364005223948719
sI1950
F0.0001662664704642762
sI1700
F0.0002876751865694126
sI1450
F0.0004880365418695085
sI2350
F7.326159256948362e-05
sI1200
F0.0009166051265922188
sI2100
F0.0001428789813384007
sI1850
F0.00019479994054215496
sI1600
F0.00035473601124101243
sI2500
F4.9834278651697085e-05
sI1350
F0.0007145270187710388
sI2250
F8.722586722942103e-05
sI1100
F0.001094023209116367
sI2000
F0.0001430503325832459
sI1750
F0.00027226695195206667
sI1500
F0.0004327847659440386
sI2400
F6.551957843575525e-05
sI1250
F0.0007490780472894053
sI2150
F9.988578285844725e-05
sI1000
F0.0015980414384813462
sI1900
F0.00018748189806578035
sI1650
F0.0003422967188874463
sI1400
F0.00053830829386989
sI2300
F8.586315452043048e-05
sI1150
F0.001068038953909723
ssI50
(dp12
I2050
F2.7115023598586182e-08
sI1800
F7.437012553261961e-08
sI1550
F1.936728219843535e-07
sI2450
F5.396136887114317e-09
sI1300
F5.709649039865728e-07
sI2200
F1.4577771291521074e-08
sI1050
F1.3791556222005397e-06
sI1950
F4.0810040766694234e-08
sI1700
F1.1538953796072277e-07
sI1450
F2.799519145982522e-07
sI2350
F7.014339856046661e-09
sI1200
F7.58153301845976e-07
sI2100
F2.255654755454396e-08
sI1850
F6.005073334194703e-08
sI1600
F1.6113061203743484e-07
sI2500
F4.2065969030764276e-09
sI1350
F4.776867883057446e-07
sI2250
F1.1462160980873335e-08
sI1100
F1.0527335131966425e-06
sI2000
F3.0526004897295796e-08
sI1750
F8.664327485409081e-08
sI1500
F2.2945942439677384e-07
sI2400
F5.946652911370274e-09
sI1250
F6.299979866720388e-07
sI2150
F1.7659683971267427e-08
sI1000
F1.8255910671839193e-06
sI1900
F4.8714692724774764e-08
sI1650
F1.2447448844120287e-07
sI1400
F3.6402428894263845e-07
sI2300
F1.013970680984372e-08
sI1150
F1.0254928606872219e-06
ssI950
(dp13
I2050
F0.00021988436104611588
sI1800
F0.00040688512251078304
sI1550
F0.0007523441984850242
sI2450
F9.459035606314498e-05
sI1300
F0.0014495707088522493
sI2200
F0.00017759109661934122
sI1050
F0.0025775470995797385
sI1950
F0.0002587892948635848
sI1700
F0.0005074297198680177
sI1450
F0.0010099382260517922
sI2350
F0.00012265496551854837
sI1200
F0.0016499805201273315
sI2100
F0.00019312602045272852
sI1850
F0.0003738997764147516
sI1600
F0.0005932284189140491
sI2500
F8.361291024113065e-05
sI1350
F0.0012816564706819287
sI2250
F0.00015030063459631915
sI1100
F0.0022075099222989177
sI2000
F0.0002745651418580548
sI1750
F0.0004538148118739374
sI1500
F0.0008026062272107822
sI2400
F0.00010338096186447173
sI1250
F0.001433274243908557
sI2150
F0.0001931336611675796
sI1000
F0.003092619983709779
sI1900
F0.00034550300846799225
sI1650
F0.000603650664314999
sI1400
F0.0011917818432376315
sI2300
F0.00013074377007139115
sI1150
F0.001668856948230457
ssI700
(dp14
I2050
F0.0004585330440650388
sI1800
F0.0006823315683473336
sI1550
F0.0014856475603933937
sI2450
F0.0001885208133782029
sI1300
F0.0022733282049263188
sI2200
F0.00029227966765702407
sI1050
F0.005483863294472411
sI1950
F0.0005781314858457443
sI1700
F0.0009115963902573483
sI1450
F0.0015500062289270959
sI2350
F0.0002090698266647598
sI1200
F0.003011569184707641
sI2100
F0.00036871144090008535
sI1850
F0.0006277121359316757
sI1600
F0.0012885401521822014
sI2500
F0.00016772442224369965
sI1350
F0.002205608000761572
sI2250
F0.000272494052948775
sI1100
F0.00368218931910205
sI2000
F0.0004772908308330178
sI1750
F0.0008720655234116584
sI1500
F0.0014803666361011113
sI2400
F0.00020443835880466343
sI1250
F0.0031011078284401516
sI2150
F0.00036427436550579765
sI1000
F0.006327255576742523
sI1900
F0.0006391675913276719
sI1650
F0.0010851903314756794
sI1400
F0.001946785545470834
sI2300
F0.000274445867042255
sI1150
F0.002948271980902488
ssI450
(dp15
I2050
F0.0008012154919980122
sI1800
F0.0012685537072467618
sI1550
F0.0026952059120013737
sI2450
F0.0003121604728224036
sI1300
F0.005129164648134332
sI2200
F0.0005350753501983484
sI1050
F0.010836543658308192
sI1950
F0.001002052555498551
sI1700
F0.0018057585445255446
sI1450
F0.0035429134802292374
sI2350
F0.00040574243359829643
sI1200
F0.006790805897472816
sI2100
F0.000721415547325778
sI1850
F0.0012568608001222805
sI1600
F0.002390443086245145
sI2500
F0.0002955154499349222
sI1350
F0.0043663978240940145
sI2250
F0.0005028976770605597
sI1100
F0.009279187397391196
sI2000
F0.0008842042498871521
sI1750
F0.0017257279813961742
sI1500
F0.003085358249953269
sI2400
F0.0003459631993865868
sI1250
F0.0057312382655728385
sI2150
F0.0006055615309695996
sI1000
F0.012625213455049508
sI1900
F0.0011766958915550446
sI1650
F0.002089764784958809
sI1400
F0.0037946611736873535
sI2300
F0.00041147617994191274
sI1150
F0.007102451698859385
ssI1350
(dp16
I2050
F0.00010495836928824956
sI1800
F0.00018573326464279633
sI1550
F0.00032885906408643703
sI2450
F4.261395060764683e-05
sI1300
F0.0005657311601152707
sI2200
F7.457489336969504e-05
sI1050
F0.0008674098494627938
sI1950
F0.0001256580501868349
sI1700
F0.00019620197024900198
sI1450
F0.0003670647110884352
sI2350
F5.090112426619242e-05
sI1200
F0.000579705299025859
sI2100
F8.129799162078146e-05
sI1850
F0.00015539071514033835
sI1600
F0.0002585572166567353
sI2500
F3.936219308825659e-05
sI1350
F0.000384317985555716
sI2250
F6.68481912698226e-05
sI1100
F0.0008005689592604901
sI2000
F0.00011441736538534282
sI1750
F0.00017440403726209596
sI1500
F0.0003111201434471381
sI2400
F5.393325230177334e-05
sI1250
F0.0005909478850210912
sI2150
F8.510069463943795e-05
sI1000
F0.0007895712711290995
sI1900
F0.00012746706347340335
sI1650
F0.00024131026718290886
sI1400
F0.0003812048590846368
sI2300
F5.654374468022321e-05
sI1150
F0.0006579687897558683
ssI200
(dp17
I2050
F0.00128197855722647
sI1800
F0.0024732690429725805
sI1550
F0.004826963256235931
sI2450
F0.0005560006727801499
sI1300
F0.010625464932268142
sI2200
F0.0009440408033726895
sI1050
F0.01934557173442066
sI1950
F0.0018871310489721894
sI1700
F0.003222684588301439
sI1450
F0.006276486560667468
sI2350
F0.0006629819768896883
sI1200
F0.013307746451996649
sI2100
F0.0012634818435369587
sI1850
F0.0022403592109271255
sI1600
F0.004285746778580781
sI2500
F0.00047759222215334405
sI1350
F0.008537600873382485
sI2250
F0.0009324551639387175
sI1100
F0.017605742835313902
sI2000
F0.0014691217682409488
sI1750
F0.0031349775500544015
sI1500
F0.005183365255298094
sI2400
F0.0005739756287138665
sI1250
F0.011755133760013177
sI2150
F0.0010033117598232048
sI1000
F0.024366616316547858
sI1900
F0.0018607014968355776
sI1650
F0.004063890737081652
sI1400
F0.007742320927510832
sI2300
F0.0007808724788219688
sI1150
F0.015921283773770785
ssI1100
(dp18
I2050
F0.00017688170750584229
sI1800
F0.0003187497776602263
sI1550
F0.0005012872527904499
sI2450
F6.920607962554456e-05
sI1300
F0.000946829946651258
sI2200
F0.00010404560161251088
sI1050
F0.0015594205369506848
sI1950
F0.00019109194543514985
sI1700
F0.00037751628772040793
sI1450
F0.0006558325833248387
sI2350
F0.00010246038749949114
sI1200
F0.0010713544610578343
sI2100
F0.0001519953445757744
sI1850
F0.0002578479976233129
sI1600
F0.00048410897640927263
sI2500
F7.066830889156536e-05
sI1350
F0.0007179678093123075
sI2250
F0.00011301556894668133
sI1100
F0.0015541129670031972
sI2000
F0.000234485211502756
sI1750
F0.0003350776681649816
sI1500
F0.0005848107435770596
sI2400
F8.60167355254112e-05
sI1250
F0.0009568941483867711
sI2150
F0.00013524785577464618
sI1000
F0.001621585586126912
sI1900
F0.0002072271254670669
sI1650
F0.00042055010190493106
sI1400
F0.0007710180352560014
sI2300
F0.00010515084474463479
sI1150
F0.001098500886739095
ssI850
(dp19
I2050
F0.00027682950293904087
sI1800
F0.000544533394886928
sI1550
F0.0008167779065376922
sI2450
F0.00012277225007454624
sI1300
F0.0013010349300390622
sI2200
F0.00021023618126589545
sI1050
F0.0033354727621695297
sI1950
F0.00041518063367773335
sI1700
F0.0007318415586151795
sI1450
F0.0013496472425390588
sI2350
F0.0001519653542062018
sI1200
F0.0019931603071258815
sI2100
F0.00028188839807647824
sI1850
F0.0004328826904907212
sI1600
F0.0008106030216419717
sI2500
F0.00010863412684352134
sI1350
F0.0015442050672348437
sI2250
F0.0001961970320244377
sI1100
F0.002921684253085317
sI2000
F0.0003648989886438893
sI1750
F0.0005828983322689679
sI1500
F0.0009907001529596872
sI2400
F0.00014326684224972986
sI1250
F0.002039597892648694
sI2150
F0.00025591504543757314
sI1000
F0.0037459668480651696
sI1900
F0.00043134151147230533
sI1650
F0.0008553616980059987
sI1400
F0.0012666960734567093
sI2300
F0.00016516127349399843
sI1150
F0.0026007615878919283
ssI600
(dp20
I2050
F0.000547280910819331
sI1800
F0.0009951669255907278
sI1550
F0.0017006173897620449
sI2450
F0.00021474516322834988
sI1300
F0.003585678527795644
sI2200
F0.00040654810609603686
sI1050
F0.0061367710510113116
sI1950
F0.0006430528312282766
sI1700
F0.0012275697850030124
sI1450
F0.002208103489856869
sI2350
F0.0002859232600459275
sI1200
F0.0037954472048390784
sI2100
F0.0004939932785256325
sI1850
F0.0008308363797132261
sI1600
F0.0015140577207630181
sI2500
F0.00019523464778893165
sI1350
F0.0030090328438491646
sI2250
F0.0003580404361324267
sI1100
F0.005752281278313572
sI2000
F0.0005765650548788989
sI1750
F0.0010187126334744038
sI1500
F0.0019970644742847944
sI2400
F0.0002678921866252974
sI1250
F0.0033283247593338043
sI2150
F0.0004222417681833026
sI1000
F0.007746932126386799
sI1900
F0.000774788404130092
sI1650
F0.0014102244562877425
sI1400
F0.002781729432184093
sI2300
F0.0003084009563403663
sI1150
F0.004703381674003947
ssI1500
(dp21
I2050
F7.684572834283818e-05
sI1800
F0.00012835085561096785
sI1550
F0.0001851828071408651
sI2450
F3.2930446263674504e-05
sI1300
F0.0003275168404513293
sI2200
F4.955775432948515e-05
sI1050
F0.0005212674928414077
sI1950
F8.267461639647178e-05
sI1700
F0.00013528621982800392
sI1450
F0.00022781362777775813
sI2350
F3.637835408017567e-05
sI1200
F0.00042126480419590634
sI2100
F5.925796400660732e-05
sI1850
F0.00010791122318520582
sI1600
F0.00017312758917561544
sI2500
F3.0218793134722674e-05
sI1350
F0.00030013751728019564
sI2250
F4.28330274362294e-05
sI1100
F0.0005866297402690882
sI2000
F7.979480492287003e-05
sI1750
F0.00013889133095762538
sI1500
F0.00024331756696814442
sI2400
F3.673084067500892e-05
sI1250
F0.0003382581618208076
sI2150
F6.641931621008943e-05
sI1000
F0.0005365619158421303
sI1900
F9.712744793078362e-05
sI1650
F0.0001510213398835852
sI1400
F0.0002912935787848208
sI2300
F4.092219653410476e-05
sI1150
F0.000517222675929987
ssI350
(dp22
I2050
F0.0010402261487229556
sI1800
F0.0018487462324192445
sI1550
F0.0032602034356704513
sI2450
F0.00040225242652448817
sI1300
F0.007273731836217848
sI2200
F0.0007055446571092731
sI1050
F0.015260668263981694
sI1950
F0.0012650621598259601
sI1700
F0.002450889325366675
sI1450
F0.004556567552447432
sI2350
F0.0005057020680477719
sI1200
F0.009059154528108728
sI2100
F0.00101520957441515
sI1850
F0.0019213245343972602
sI1600
F0.002720564812040716
sI2500
F0.00036512834383121734
sI1350
F0.005723651191061605
sI2250
F0.000663692161693317
sI1100
F0.01192502753908745
sI2000
F0.0011682285037520111
sI1750
F0.0023026002790903144
sI1500
F0.004034016440803175
sI2400
F0.000442166850850307
sI1250
F0.008538763909868309
sI2150
F0.0007895275298595645
sI1000
F0.016574453587394646
sI1900
F0.0013709337218448176
sI1650
F0.002792532687718881
sI1400
F0.005158480671646903
sI2300
F0.0005574677263029616
sI1150
F0.01065689386881626
ssI1250
(dp23
I2050
F0.00011994840218367801
sI1800
F0.0002181898043315699
sI1550
F0.0003880617278560941
sI2450
F5.4272994641667e-05
sI1300
F0.0006954542024370996
sI2200
F0.00010214355760497267
sI1050
F0.0010313777359173078
sI1950
F0.00015574257392779459
sI1700
F0.0002704830002024735
sI1450
F0.00043219161502118715
sI2350
F6.708841873670473e-05
sI1200
F0.0007612224529581299
sI2100
F0.00011511805327203013
sI1850
F0.00018577411736050585
sI1600
F0.0003155607047795295
sI2500
F4.8691781046159265e-05
sI1350
F0.0006628872897690752
sI2250
F6.761118242823662e-05
sI1100
F0.0008803359395019186
sI2000
F0.00014814096246475365
sI1750
F0.00026676784417994465
sI1500
F0.0004091664014043633
sI2400
F6.522470291099078e-05
sI1250
F0.0006964802301127809
sI2150
F9.604315104715075e-05
sI1000
F0.000989365184535548
sI1900
F0.00014850948335215467
sI1650
F0.00026060902208830024
sI1400
F0.0005055077522204552
sI2300
F7.454183451927017e-05
sI1150
F0.000899449498115596
ssI100
(dp24
I2050
F2.858926671056441e-08
sI1800
F7.519876135993236e-08
sI1550
F1.9504463943575197e-07
sI2450
F5.604125767407577e-09
sI1300
F4.856675324860378e-07
sI2200
F1.444435837900513e-08
sI1050
F1.2948475453088886e-06
sI1950
F4.155124597737532e-08
sI1700
F1.0544881827757235e-07
sI1450
F2.986771339666048e-07
sI2350
F7.659377500386001e-09
sI1200
F7.260815392652079e-07
sI2100
F2.191313958561791e-08
sI1850
F5.7454528107749985e-08
sI1600
F1.618522557153726e-07
sI2500
F4.613853001234834e-09
sI1350
F4.330121760828605e-07
sI2250
F1.2594925219910686e-08
sI1100
F1.0156313632033155e-06
sI2000
F3.4890234761903474e-08
sI1750
F9.255718404271846e-08
sI1500
F2.4358182844946287e-07
sI2400
F6.275187796382979e-09
sI1250
F6.555968968423162e-07
sI2150
F1.744564516572604e-08
sI1000
F1.5230516418239086e-06
sI1900
F4.9612332886305777e-08
sI1650
F1.3720176924761896e-07
sI1400
F3.34704775315465e-07
sI2300
F9.272804340316462e-09
sI1150
F9.443977312790413e-07
ssI1000
(dp25
I2050
F0.0001880919196611592
sI1800
F0.00036856624348702315
sI1550
F0.000751057736452842
sI2450
F0.0001048424668694212
sI1300
F0.0010667461048822118
sI2200
F0.0001687109131162059
sI1050
F0.0019731411573120326
sI1950
F0.00024957076576344355
sI1700
F0.00046993106003617176
sI1450
F0.0008344999267612441
sI2350
F0.0001077395965259213
sI1200
F0.0014468285337670328
sI2100
F0.00022270006563310598
sI1850
F0.0003762717620958663
sI1600
F0.0005191552721996365
sI2500
F8.363510579986039e-05
sI1350
F0.001034351557650732
sI2250
F0.00014216246208263714
sI1100
F0.0018394150712961737
sI2000
F0.0001898437250254636
sI1750
F0.0004216673289435149
sI1500
F0.0007684426212096548
sI2400
F0.00010760406552227198
sI1250
F0.001170535800862726
sI2150
F0.00014812738693572891
sI1000
F0.002589225939426869
sI1900
F0.0002927881542508167
sI1650
F0.0005155048760588502
sI1400
F0.001019466708087524
sI2300
F0.00013651375336661128
sI1150
F0.0016172249012388921
ssI750
(dp26
I2050
F0.00040497488973291376
sI1800
F0.0006821718064995512
sI1550
F0.0012931203497197452
sI2450
F0.00015317392672013086
sI1300
F0.0016373419562086418
sI2200
F0.00028933832480252536
sI1050
F0.004006785664611817
sI1950
F0.0004963700827468908
sI1700
F0.0008922144673863176
sI1450
F0.0013629274930264403
sI2350
F0.0001911331739366004
sI1200
F0.003107555119860304
sI2100
F0.00031858639231887415
sI1850
F0.0006476277007919063
sI1600
F0.0010603763772981786
sI2500
F0.00015252875544198834
sI1350
F0.001678278588634088
sI2250
F0.00024158298723066517
sI1100
F0.003636660124845106
sI2000
F0.00042339261829391246
sI1750
F0.0007497220368231074
sI1500
F0.0012613700708095704
sI2400
F0.00017348043907980273
sI1250
F0.0026233259361051037
sI2150
F0.0002730169247432603
sI1000
F0.0051765574294460595
sI1900
F0.0005450944938695407
sI1650
F0.0009139398756534149
sI1400
F0.001661425976768702
sI2300
F0.00020409967396795099
sI1150
F0.003086955969907206
ssI500
(dp27
I2050
F0.0007046177711556735
sI1800
F0.0012337204431239139
sI1550
F0.0022785401787472456
sI2450
F0.0002652170363431334
sI1300
F0.004574435446373524
sI2200
F0.0005385165402467426
sI1050
F0.009075510946362967
sI1950
F0.000882258902083181
sI1700
F0.0015712181029133216
sI1450
F0.002634341200657743
sI2350
F0.00033406135730048285
sI1200
F0.005778153487648941
sI2100
F0.0006286830974542718
sI1850
F0.0011170317573049504
sI1600
F0.0020887319388933076
sI2500
F0.00025775373069161474
sI1350
F0.00341065203975839
sI2250
F0.0004538772731753517
sI1100
F0.007808167798025738
sI2000
F0.0007382422052088229
sI1750
F0.001412891611423976
sI1500
F0.002684920379469235
sI2400
F0.0003234962091747692
sI1250
F0.004938281130500404
sI2150
F0.0005906940944900606
sI1000
F0.010755340343059402
sI1900
F0.0010576675170307977
sI1650
F0.0016990170587658918
sI1400
F0.0032444738066381485
sI2300
F0.000378479833078868
sI1150
F0.00610130401497115
ssI1400
(dp28
I2050
F9.225654894169598e-05
sI1800
F0.00014958578361009886
sI1550
F0.00023026223904286852
sI2450
F3.826802406407718e-05
sI1300
F0.00044594601443788406
sI2200
F7.027097118329629e-05
sI1050
F0.0006509167788101469
sI1950
F0.00010397750065652965
sI1700
F0.000202657638508849
sI1450
F0.00031964911880359996
sI2350
F4.4440569568551246e-05
sI1200
F0.000549218926095312
sI2100
F8.045948294416203e-05
sI1850
F0.0001280851381585606
sI1600
F0.00025501008501908516
sI2500
F3.594869472231828e-05
sI1350
F0.000451752643893558
sI2250
F5.591694637497903e-05
sI1100
F0.0006905589484715216
sI2000
F9.093767598571616e-05
sI1750
F0.00017878430750413896
sI1500
F0.0002708998606264995
sI2400
F4.686597758145727e-05
sI1250
F0.0004578607766506412
sI2150
F7.715675027557312e-05
sI1000
F0.0008436154224771539
sI1900
F0.00012086355110189541
sI1650
F0.00021003873469672068
sI1400
F0.0003179423521129498
sI2300
F5.2423036838005075e-05
sI1150
F0.0006301774902274373
ssI250
(dp29
I2050
F0.0012684699875299057
sI1800
F0.002177954107628912
sI1550
F0.004285339272180026
sI2450
F0.0004650545062794612
sI1300
F0.008696971337789247
sI2200
F0.0008883885203862338
sI1050
F0.01840072488299121
sI1950
F0.0016029033136110036
sI1700
F0.0027615454626259534
sI1450
F0.005259919860579468
sI2350
F0.0006252404162441852
sI1200
F0.011827487569794591
sI2100
F0.0011308928927281736
sI1850
F0.0018330289177320902
sI1600
F0.003851881496337148
sI2500
F0.00046273031020677683
sI1350
F0.007818224717912495
sI2250
F0.0008648081889925772
sI1100
F0.01666682152465487
sI2000
F0.0012505006168228017
sI1750
F0.0028814864710301597
sI1500
F0.005426679327989471
sI2400
F0.0005542956150877092
sI1250
F0.010715228297683536
sI2150
F0.0010094110013405707
sI1000
F0.02135656023244932
sI1900
F0.0018907351576605328
sI1650
F0.0034819752048880844
sI1400
F0.006490020605194115
sI2300
F0.000714259433303601
sI1150
F0.013803296573279491
ssI1150
(dp30
I2050
F0.00014242079475864137
sI1800
F0.0002794252978837586
sI1550
F0.0004239905868478085
sI2450
F6.170033541842158e-05
sI1300
F0.0007552432817848388
sI2200
F0.00011535790345117597
sI1050
F0.0015658441733404195
sI1950
F0.0001962663937544036
sI1700
F0.0003672500425653136
sI1450
F0.0006028719055411146
sI2350
F8.399107491537862e-05
sI1200
F0.0010488647394021138
sI2100
F0.0001368317280393992
sI1850
F0.00025848185051447387
sI1600
F0.0004268905181837306
sI2500
F5.525769456536126e-05
sI1350
F0.0007546114460679099
sI2250
F9.238981854048931e-05
sI1100
F0.0013988615887839681
sI2000
F0.00017218020764307802
sI1750
F0.0003003166449404324
sI1500
F0.0004976435751784878
sI2400
F6.841053284105049e-05
sI1250
F0.000898455505411567
sI2150
F0.00012735477541900265
sI1000
F0.001469605633795812
sI1900
F0.00019602970119070854
sI1650
F0.00036831069408517833
sI1400
F0.0005956474757376326
sI2300
F8.728424089017257e-05
sI1150
F0.0010951333258633065
ss.