(dp0
I900
(dp1
I800
F5.6521003376797854e-05
sI100
F6.206445089341324e-05
sI200
F6.464346505287735e-05
sI10
F6.801992117158683e-05
sI75
F6.606686889329343e-05
sI300
F6.345597638320783e-05
sI750
F4.438978013885758e-05
sI400
F6.921326987672988e-05
sI50
F6.676075231222148e-05
sI500
F6.582044561473775e-05
sI600
F6.88373668053929e-05
sI25
F9.020263715415907e-05
sI700
F4.748159088768374e-05
ssI650
(dp2
I450
F0.0004286330143653792
sI500
F0.00037471871736003207
sI550
F0.00046869813612460446
ssI400
(dp3
I200
F0.007235977034580527
sI300
F0.00792006403402434
sI10
F0.00769261582982063
sI100
F0.007635709251931756
sI250
F0.006197260536332163
ssI1300
(dp4
I800
F3.959411569507209e-06
sI1200
F3.392206264328646e-06
sI100
F3.840295645059959e-06
sI200
F4.370833479106475e-06
sI1100
F2.8212328669811684e-06
sI10
F4.596477623212409e-06
sI75
F4.04873087946238e-06
sI300
F4.283974053269994e-06
sI400
F4.806144459035178e-06
sI1000
F4.0001054666919795e-06
sI50
F4.527386285388955e-06
sI500
F4.791679325977313e-06
sI600
F4.717421856132702e-06
sI25
F4.527485815697223e-06
sI900
F4.0661114060464504e-06
sI700
F4.591449742904538e-06
sI1150
F3.0339580189879534e-06
ssI1050
(dp5
I850
F1.6657815035438276e-05
sI900
F1.4216183100566751e-05
sI950
F1.8267904304997017e-05
ssI800
(dp6
I100
F0.0001670401455683904
sI200
F0.00013135401554223908
sI10
F0.00013358697417106474
sI75
F0.00013520440387431744
sI300
F0.00014627321752956328
sI400
F0.0001474032469689349
sI50
F0.0001462700706631975
sI500
F0.00012836621666131515
sI600
F0.00011555424328445402
sI25
F0.00013648470865382857
sI700
F0.00013778256352974902
sI650
F9.46116640283451e-05
ssI550
(dp7
I400
F0.0012960320888540519
sI450
F0.001159105309972292
sI350
F0.0010621774949607062
ssI1450
(dp8
I1250
F1.651104109931953e-06
sI1300
F1.188500044494954e-06
sI1350
F1.3508200812513182e-06
ssI300
(dp9
I200
F0.02607445222763843
sI10
F0.028746241997270213
sI100
F0.02796654243236276
sI150
F0.02799464375463083
ssI1200
(dp10
I800
F7.826937687277611e-06
sI100
F7.271493576224377e-06
sI200
F1.010297527225931e-05
sI1100
F6.683320972386992e-06
sI10
F7.818233774804943e-06
sI75
F9.023880531337902e-06
sI300
F8.124977661527646e-06
sI400
F8.911689069909235e-06
sI1000
F5.852250194883369e-06
sI50
F7.654084106866933e-06
sI500
F8.877879202376332e-06
sI600
F8.561342966841367e-06
sI25
F8.105340653833539e-06
sI900
F7.569706350442301e-06
sI700
F8.606271644683471e-06
sI1050
F6.193452461570167e-06
ssI950
(dp11
I800
F3.276251218756147e-05
sI850
F3.650596825048843e-05
sI750
F3.753130715412014e-05
ssI700
(dp12
I100
F0.0003223450984801188
sI550
F0.00023427444157160125
sI200
F0.00035219177623558917
sI10
F0.0003493473649533807
sI300
F0.0002975385291906241
sI400
F0.0002741374992335061
sI500
F0.0002720549535873462
sI600
F0.00026433561716171516
ssI450
(dp13
I250
F0.003149793771770592
sI300
F0.0036098392309449876
sI350
F0.0035480695285249075
ssI1350
(dp14
I1200
F2.4508357007706367e-06
sI1250
F2.672941948805114e-06
sI1150
F2.6963947442745307e-06
ssI1100
(dp15
I800
F1.5456618406282294e-05
sI100
F1.6037069438660936e-05
sI200
F1.5548158834252016e-05
sI10
F1.727987230571116e-05
sI75
F1.6754015881898965e-05
sI300
F1.580881708606258e-05
sI400
F1.6659616689378987e-05
sI1000
F1.4433086418285282e-05
sI50
F1.4575121867760793e-05
sI500
F1.628213593085738e-05
sI950
F1.2426006649408386e-05
sI600
F1.4549784451967772e-05
sI25
F1.481902702447527e-05
sI900
F1.4715790966749126e-05
sI700
F1.4690131828579144e-05
ssI850
(dp16
I650
F7.828478598618176e-05
sI700
F0.00010469149267794
sI750
F7.666109700930867e-05
ssI600
(dp17
I450
F0.0006653287183426129
sI100
F0.001013449142261111
sI200
F0.0007882573951953868
sI10
F0.0008454022654361549
sI300
F0.0008183387240280701
sI400
F0.0006192287507042042
sI500
F0.0006566031895002991
ssI1500
(dp18
I800
F1.2907425307027672e-06
sI1200
F1.358893279850113e-06
sI100
F1.2070647853822028e-06
sI1350
F9.683766048904884e-07
sI1300
F1.2333606121055487e-06
sI1400
F1.0975205790058918e-06
sI200
F1.250292108496761e-06
sI1100
F1.3982005784427568e-06
sI10
F1.170463131631737e-06
sI75
F1.1084192752238371e-06
sI300
F1.1959218902716994e-06
sI400
F1.0892822872082586e-06
sI1000
F1.5509656596439457e-06
sI50
F1.3287873350185816e-06
sI500
F1.3786119186159984e-06
sI600
F1.2945729242731216e-06
sI25
F1.1502588018777105e-06
sI900
F1.228584901314201e-06
sI700
F1.2495653942014699e-06
ssI350
(dp19
I200
F0.01300036886378606
sI250
F0.013908812153949188
sI150
F0.015582199340889735
ssI1250
(dp20
I1050
F5.018501318564976e-06
sI1100
F4.220025906221118e-06
sI1150
F5.414896662174192e-06
ssI1000
(dp21
I800
F2.3599520203722423e-05
sI100
F3.134570813718854e-05
sI200
F3.087015462570251e-05
sI10
F3.489810070950047e-05
sI75
F3.087244489591354e-05
sI300
F3.220086453449365e-05
sI850
F2.2817425740632532e-05
sI400
F3.229568014272934e-05
sI50
F3.179567745177178e-05
sI500
F3.4900723548416265e-05
sI600
F3.1681009831818896e-05
sI25
F3.425269179485271e-05
sI900
F2.8628350521472044e-05
sI700
F2.9408457263693893e-05
ssI750
(dp22
I600
F0.0001759077971617338
sI650
F0.00017448281809257784
sI550
F0.00017921178020393323
ssI500
(dp23
I100
F0.002236907513688758
sI200
F0.002188656399452567
sI10
F0.002367877527511869
sI300
F0.002329370135924973
sI400
F0.0017837729847187324
sI350
F0.0018469241794628805
ssI1400
(dp24
I800
F2.3339014560470438e-06
sI1200
F1.7490178745810019e-06
sI1250
F1.9534911938350328e-06
sI100
F2.1396217595243817e-06
sI1300
F2.1215211152179483e-06
sI200
F2.5845726062551383e-06
sI1100
F2.011233621716752e-06
sI10
F2.260149525934232e-06
sI75
F2.0319944752119545e-06
sI300
F2.2501593167406662e-06
sI400
F2.335923454168785e-06
sI1000
F2.1807350552427062e-06
sI50
F2.126907281651224e-06
sI500
F2.7280099419802953e-06
sI600
F2.4628925208178854e-06
sI25
F2.348340490233231e-06
sI900
F2.2125256341792788e-06
sI700
F2.338747613188601e-06
ssI1150
(dp25
I1000
F8.892463732602193e-06
sI1050
F1.0813034105387769e-05
sI950
F9.295277111738919e-06
ss.