(dp0
I2050
(dp1
I900
F0.0
sI1800
F2.3998861506629028e-08
sI10
F2.965002553983403e-08
sI400
F0.0
sI1300
F2.4917449098181473e-08
sI150
F0.0
sI25
F0.0
sI1950
F0.0
sI800
F7.923311527623039e-08
sI1700
F0.0
sI300
F2.7073460352433195e-08
sI1200
F5.219927744390306e-08
sI50
F3.875072371443911e-08
sI1850
F0.0
sI700
F2.046402667348773e-08
sI1600
F5.7228544572363684e-08
sI200
F4.0641236258269235e-08
sI1100
F0.0
sI2000
F1.6073869564826487e-08
sI2040
F3.309579819497336e-08
sI1750
F5.847764726891678e-08
sI600
F1.9131848047958774e-08
sI1500
F2.833040860563768e-08
sI100
F7.843058290672377e-08
sI1000
F2.845335683902056e-08
sI2025
F2.3263550881179192e-08
sI1900
F0.0
sI500
F1.2905370587959088e-07
sI1400
F5.787866839735987e-08
ssI900
(dp2
I800
F1.3576998104612194e-05
sI200
F9.286284259579143e-06
sI10
F1.9170588138001315e-07
sI300
F1.9642304531686268e-05
sI400
F1.4478585155719533e-05
sI500
F1.594656290428107e-05
sI600
F2.0647093887823366e-05
sI890
F3.3360102837339724e-05
sI700
F6.985363855804925e-06
ssI1800
(dp3
I900
F1.5376196072996966e-08
sI10
F8.091166357991114e-08
sI1550
F0.0
sI400
F1.052439808957892e-07
sI1300
F5.263660170755607e-08
sI150
F0.0
sI25
F1.1075177092206834e-07
sI800
F5.2202521720928936e-08
sI1700
F0.0
sI300
F6.047871474363559e-08
sI1200
F0.0
sI50
F0.0
sI700
F1.1253073931645622e-07
sI1600
F4.2218606918415024e-08
sI200
F8.795782795253321e-08
sI1100
F6.193701234546273e-08
sI1750
F2.290343517241709e-07
sI600
F4.944694377233921e-08
sI1500
F1.9325790200228065e-07
sI100
F8.82254522441543e-08
sI1000
F9.298095369387766e-08
sI1775
F7.783596642848286e-08
sI1650
F1.6487586047690776e-07
sI500
F1.2075561337028924e-07
sI1400
F9.535231067234289e-08
sI1790
F0.0
ssI1550
(dp4
I900
F1.5688068167251668e-07
sI10
F0.0
sI400
F5.478819762890828e-07
sI1300
F2.916991330346514e-07
sI150
F2.050645315350108e-07
sI25
F1.972377836620719e-07
sI800
F3.8285898992878165e-07
sI1450
F1.0255041442373371e-06
sI300
F4.422340805158059e-07
sI1540
F7.525952887041625e-07
sI1200
F9.154155409349561e-07
sI50
F0.0
sI700
F6.308329709893049e-09
sI1350
F5.204534788160168e-07
sI200
F0.0
sI1100
F0.0
sI600
F2.4293606183537606e-07
sI1500
F9.726305647932e-07
sI1250
F0.0
sI100
F2.5578842850862275e-07
sI1000
F0.0
sI500
F0.0
sI1525
F1.2280363200515504e-06
sI1400
F2.1245230554443315e-07
ssI2450
(dp5
I900
F9.526765179796216e-09
sI1800
F1.7890013173873608e-09
sI10
F0.0
sI400
F7.2604425852061765e-09
sI1300
F2.036259475948207e-09
sI150
F0.0
sI2200
F0.0
sI25
F0.0
sI800
F0.0
sI1700
F0.0
sI300
F0.0
sI2350
F3.965230600688391e-09
sI1200
F0.0
sI2440
F5.4895187676069516e-09
sI50
F0.0
sI2100
F0.0
sI700
F4.495050508661534e-09
sI1600
F7.618722005313331e-09
sI200
F4.946052941826526e-09
sI2250
F9.598887417735954e-09
sI1100
F3.8902457871489354e-09
sI2000
F0.0
sI600
F8.842282659213475e-10
sI1500
F4.366141469958073e-09
sI2400
F1.0645771902813435e-08
sI100
F2.0421770745896704e-09
sI2150
F1.2502299498729209e-08
sI1000
F9.594191069376089e-09
sI1900
F4.0728695108179525e-09
sI500
F2.834749428097105e-09
sI1400
F0.0
sI2425
F5.482791103258188e-09
sI2300
F6.4315264010451995e-09
ssI1300
(dp6
I800
F2.8791527014388945e-07
sI1200
F6.0422667302813665e-06
sI1250
F1.998974576492519e-06
sI100
F2.2162068666401136e-06
sI200
F2.6997724274934814e-06
sI1100
F4.318634867790749e-06
sI10
F0.0
sI300
F9.30898325031221e-07
sI400
F1.5669805155752291e-06
sI1000
F4.560360143298066e-06
sI50
F0.0
sI500
F1.7034344437182532e-06
sI1290
F1.3410305148827512e-06
sI150
F0.0
sI600
F2.0890654863477807e-06
sI25
F0.0
sI900
F8.692015456177289e-07
sI1275
F5.508779853205936e-07
sI700
F1.5960316955032718e-06
sI1050
F4.9186892281383445e-06
sI1150
F3.350524126882417e-06
ssI2200
(dp7
I2050
F2.1202527933881227e-08
sI900
F1.4846441087690612e-08
sI1800
F0.0
sI10
F1.5713914433968754e-08
sI2190
F3.4315512111755195e-08
sI400
F0.0
sI1300
F0.0
sI150
F0.0
sI25
F0.0
sI1950
F2.1985739608985573e-08
sI800
F1.659217044146439e-08
sI1700
F5.95964102344156e-09
sI300
F1.8581700870787057e-08
sI1200
F1.972421203345655e-08
sI50
F0.0
sI2100
F0.0
sI700
F3.121387038765975e-08
sI1600
F2.4431373124019274e-08
sI200
F1.0763688788588575e-08
sI1100
F1.4253865576295818e-08
sI2000
F9.58632217315642e-09
sI600
F1.75119548944668e-08
sI1500
F1.7904002381026108e-08
sI100
F0.0
sI2150
F1.855454587083768e-08
sI1000
F1.7381268326572598e-08
sI1900
F3.617810540832311e-08
sI500
F0.0
sI1400
F0.0
sI2175
F0.0
ssI1050
(dp8
I800
F7.0602073797850475e-06
sI1025
F1.32941862918254e-05
sI100
F8.414998870525719e-06
sI950
F5.81816172079299e-06
sI1040
F7.616576441420466e-06
sI200
F6.662406590948987e-06
sI10
F0.0
sI300
F8.600567749256173e-06
sI850
F7.481718994171796e-06
sI750
F3.334684234825098e-06
sI400
F4.929643811682101e-06
sI1000
F8.282392413826642e-06
sI50
F1.9717380197005675e-06
sI500
F8.587968597093361e-06
sI150
F4.359439737624981e-06
sI600
F6.901797013434147e-06
sI25
F0.0
sI900
F4.142229750915504e-06
sI700
F1.0969656438583559e-05
ssI1950
(dp9
I900
F0.0
sI1925
F9.312574811423687e-08
sI1800
F9.95985983341059e-08
sI10
F4.911787869957938e-08
sI400
F0.0
sI1300
F3.2179800757278984e-08
sI150
F2.3393647561684902e-08
sI25
F2.7139522096412857e-08
sI800
F2.0312815555746074e-08
sI1700
F1.5902351972323786e-08
sI300
F3.168221058918272e-08
sI1200
F6.966778052630977e-08
sI50
F0.0
sI1850
F5.73517221538372e-08
sI700
F9.587426195468616e-08
sI1600
F0.0
sI200
F8.745830433306855e-08
sI1100
F5.915125367410226e-08
sI1750
F5.098315516221392e-08
sI600
F9.593831762997264e-08
sI1500
F1.1510178143786559e-07
sI100
F2.7398938500975198e-08
sI1000
F3.428348094728699e-08
sI1900
F6.567532995112553e-08
sI1650
F7.98151767305454e-08
sI500
F2.9396774072742815e-08
sI1400
F6.074219724592824e-08
sI1940
F2.6010206216729254e-08
ssI800
(dp10
I200
F1.6334199196324006e-05
sI10
F0.0
sI300
F8.182050524502028e-06
sI400
F4.64841123540314e-05
sI500
F6.0586052365481884e-05
sI790
F7.436294856788231e-05
sI600
F5.124232717394656e-05
sI700
F8.220124771801093e-05
ssI1700
(dp11
I900
F2.68860840363395e-07
sI10
F7.199310744060213e-08
sI1675
F6.147771743346525e-08
sI1550
F4.0342109863400666e-07
sI400
F3.631562771548143e-07
sI1300
F6.257062895721822e-08
sI150
F1.2796093966186386e-08
sI25
F0.0
sI1690
F3.1521890694570534e-07
sI800
F0.0
sI1450
F3.5025734855974915e-07
sI300
F0.0
sI1200
F3.4978369759625975e-07
sI50
F0.0
sI700
F3.367138930090656e-07
sI1600
F3.972858461496876e-07
sI200
F3.990686581977423e-07
sI1100
F1.4917889089413143e-07
sI600
F2.6657818145698334e-07
sI1500
F9.83998327867674e-08
sI100
F1.228081061957889e-07
sI1000
F2.01428629116429e-07
sI1650
F4.250462466119179e-07
sI500
F0.0
sI1400
F0.0
ssI1450
(dp12
I900
F4.822959644840485e-07
sI10
F0.0
sI400
F9.711908965674222e-07
sI1425
F3.7934015652793113e-06
sI1300
F0.0
sI150
F6.581074368996737e-07
sI25
F0.0
sI800
F4.662057688452858e-07
sI300
F0.0
sI1200
F8.395013197334332e-07
sI50
F0.0
sI700
F5.386997795284582e-07
sI1440
F1.0839429414624253e-06
sI1350
F4.6918052400689704e-07
sI200
F8.793017314166241e-07
sI1100
F2.9778539318037745e-07
sI600
F4.14525988819876e-07
sI1250
F1.0810858753449137e-06
sI100
F0.0
sI1000
F3.04218086872377e-07
sI500
F9.059810188680099e-07
sI1400
F1.486076868003358e-06
sI1150
F0.0
ssI2350
(dp13
I2050
F4.299413028366668e-09
sI900
F7.621046914485467e-09
sI1800
F1.0369321928796587e-08
sI10
F0.0
sI400
F0.0
sI1300
F9.204960861788434e-09
sI2325
F6.019708295391403e-09
sI150
F1.370112224211429e-08
sI2200
F0.0
sI25
F0.0
sI800
F8.090415724195056e-09
sI1700
F6.6335889497409e-09
sI300
F0.0
sI1200
F4.11070593797227e-09
sI50
F4.943261454834259e-09
sI2100
F7.668414643785424e-09
sI700
F6.970603757993615e-09
sI1600
F1.969089620280009e-08
sI200
F4.119967228952949e-09
sI2250
F0.0
sI1100
F0.0
sI2000
F6.553122434437885e-09
sI600
F5.072669474870304e-09
sI2340
F9.238733229928194e-09
sI1500
F4.3555698542308556e-09
sI100
F0.0
sI2150
F0.0
sI1000
F9.008675690682326e-09
sI1900
F8.371355991694333e-09
sI500
F7.72907708829323e-09
sI1400
F3.5402754906722996e-12
sI2300
F0.0
ssI1200
(dp14
I800
F2.301945253561517e-06
sI100
F1.6883668167554656e-06
sI950
F1.1573092387504837e-06
sI1190
F8.39524499499836e-06
sI200
F6.168909999087615e-08
sI1100
F3.4143999832216824e-06
sI10
F0.0
sI300
F4.96005669935576e-06
sI400
F7.450324621703457e-07
sI1000
F3.4284726276897137e-06
sI50
F0.0
sI500
F1.9471532211648112e-06
sI150
F2.520323067169708e-06
sI1175
F3.848798613108542e-06
sI600
F2.4338828699631333e-06
sI25
F1.3245487094026828e-06
sI900
F4.053764187612442e-06
sI700
F2.2080286193311806e-06
sI1050
F3.6334895004633262e-06
sI1150
F3.768163170177629e-06
ssI2100
(dp15
I2050
F7.078064459845471e-08
sI900
F0.0
sI1800
F2.6294180972738438e-08
sI10
F0.0
sI400
F5.1811887331472727e-08
sI1300
F0.0
sI150
F6.985283459674869e-08
sI25
F0.0
sI2075
F5.2443478865148774e-08
sI1950
F0.0
sI800
F0.0
sI1700
F4.302270355977193e-08
sI2090
F3.792171583998884e-08
sI300
F0.0
sI1200
F0.0
sI50
F0.0
sI1850
F2.7431576247461282e-08
sI700
F2.7600151331034635e-08
sI1600
F0.0
sI200
F2.345827112760818e-08
sI1100
F0.0
sI2000
F0.0
sI600
F0.0
sI1500
F0.0
sI100
F0.0
sI1000
F9.034807173847005e-09
sI1900
F0.0
sI500
F3.4618569180263426e-08
sI1400
F1.0618025592596774e-07
ssI1850
(dp16
I900
F0.0
sI1800
F7.212155806870095e-08
sI10
F0.0
sI1550
F1.300312569900168e-07
sI400
F5.973256113956363e-08
sI1300
F1.3820373752438032e-07
sI150
F4.10113242272253e-08
sI25
F0.0
sI800
F3.8076952531232756e-08
sI1825
F4.3982636500210795e-08
sI1700
F1.0604573532841475e-07
sI300
F5.420407446860624e-08
sI1200
F0.0
sI50
F0.0
sI700
F8.86845208296569e-08
sI1600
F4.018570901549443e-08
sI200
F7.769988019580468e-08
sI1100
F5.754373953219355e-08
sI1750
F3.7263185311130286e-08
sI600
F7.586871507649667e-08
sI1500
F1.1957834135997599e-07
sI1840
F1.9646161476607784e-10
sI100
F0.0
sI1000
F5.7704696684181673e-08
sI1650
F0.0
sI500
F3.827489741527689e-08
sI1400
F2.8591870091024848e-08
ssI1600
(dp17
I900
F2.109060980893379e-07
sI10
F2.0946195184808785e-07
sI1550
F0.0
sI400
F1.8509271478659937e-07
sI1300
F1.882203865570825e-07
sI150
F1.6649268795712779e-07
sI25
F0.0
sI800
F0.0
sI1575
F4.3866030733139824e-07
sI1450
F1.395931875835074e-07
sI300
F0.0
sI1200
F5.303822301725486e-07
sI50
F0.0
sI1590
F4.782202204582749e-07
sI700
F4.695550159334483e-07
sI1350
F4.0074856783913656e-07
sI200
F3.310423851062719e-07
sI1100
F4.778610757820774e-07
sI600
F0.0
sI1500
F1.8941828832941177e-07
sI100
F6.963168484664077e-08
sI1000
F4.389407950749462e-07
sI500
F1.3575631576738733e-07
sI1400
F4.72218985013743e-07
ssI2500
(dp18
I900
F0.0
sI1800
F0.0
sI10
F0.0
sI400
F5.5825597493764784e-09
sI2450
F3.3022861720097067e-09
sI1300
F5.281060488023645e-09
sI150
F7.826948992148878e-09
sI2200
F0.0
sI25
F0.0
sI800
F0.0
sI1700
F1.5097414477332299e-09
sI2475
F0.0
sI300
F1.1210628495042557e-08
sI2350
F0.0
sI1200
F0.0
sI50
F0.0
sI2100
F0.0
sI2490
F9.159995587092413e-09
sI700
F6.1078100887253106e-09
sI1600
F0.0
sI200
F3.2990835280491255e-09
sI2250
F0.0
sI1100
F1.080565589497443e-08
sI2000
F0.0
sI600
F0.0
sI1500
F7.2578919150320685e-09
sI2400
F1.0608116809909165e-09
sI100
F3.4157148650666836e-09
sI1000
F0.0
sI1900
F3.0720897939553068e-09
sI500
F3.4326766652939247e-09
sI1400
F2.243440801763176e-09
sI2300
F3.815165232535183e-09
ssI1350
(dp19
I900
F1.3569747711541705e-06
sI10
F0.0
sI400
F1.5277224504619348e-06
sI1300
F7.986510273705946e-07
sI150
F7.864289791892229e-07
sI25
F0.0
sI1050
F1.8328791598468427e-06
sI800
F4.328724645316794e-07
sI300
F8.635773961766062e-07
sI1325
F1.6202623230595502e-06
sI1200
F2.490407611651027e-06
sI50
F0.0
sI1340
F6.62289184856158e-07
sI200
F0.0
sI1100
F4.5422459220553316e-07
sI600
F7.929797240414338e-07
sI1250
F7.861335090454512e-07
sI100
F8.185539112917033e-07
sI1000
F1.2644646826873134e-06
sI700
F6.903153579002341e-07
sI500
F1.323346983863581e-06
sI1150
F1.4167328992745131e-06
ssI2250
(dp20
I2240
F4.470207690295793e-08
sI2050
F1.1348060773163736e-08
sI900
F0.0
sI1800
F1.3093721759732582e-08
sI10
F1.081259982164934e-08
sI400
F1.8372428614825603e-08
sI1300
F1.3946853994069872e-08
sI150
F0.0
sI2200
F3.2612796495821175e-08
sI25
F0.0
sI1950
F1.2305862015186537e-08
sI800
F0.0
sI1700
F6.338087771209249e-09
sI300
F0.0
sI1200
F1.3511678297801747e-08
sI2225
F0.0
sI50
F0.0
sI2100
F9.0479238079023e-09
sI700
F0.0
sI1600
F5.8096767028078405e-09
sI200
F0.0
sI1100
F3.4567154252301936e-08
sI2000
F2.5796529027624873e-08
sI600
F2.1504682712123658e-08
sI1500
F2.824542539705742e-08
sI100
F1.311828184251034e-08
sI2150
F0.0
sI1000
F1.557588619645601e-10
sI1900
F0.0
sI500
F2.404331241375654e-08
sI1400
F0.0
ssI1100
(dp21
I800
F8.822871868682046e-06
sI1090
F7.284829284524865e-06
sI100
F3.447016400969574e-06
sI950
F2.985193616835521e-06
sI200
F3.3483911069199694e-06
sI10
F8.223034779845035e-07
sI300
F4.063992611010619e-06
sI850
F7.918567305186566e-06
sI400
F2.4202881146365163e-06
sI1000
F4.605154675908939e-06
sI50
F9.897133721393012e-07
sI1075
F6.5548125003654985e-06
sI500
F7.350614715831165e-06
sI150
F4.012605935265526e-06
sI600
F8.1952297271694e-06
sI25
F0.0
sI900
F1.795432828329728e-06
sI700
F7.814176651180852e-06
sI1050
F1.001168343144526e-05
ssI2000
(dp22
I900
F3.202054067080916e-08
sI1800
F5.145725008585559e-08
sI10
F0.0
sI400
F0.0
sI1300
F0.0
sI150
F0.0
sI25
F0.0
sI1950
F1.2886481894668513e-08
sI800
F0.0
sI1700
F0.0
sI300
F1.1452636319399911e-07
sI1200
F4.1999133664603495e-08
sI50
F0.0
sI1975
F0.0
sI1850
F0.0
sI700
F0.0
sI1600
F3.2925295274222804e-08
sI1990
F3.323496265651348e-08
sI200
F4.949304228562819e-08
sI1100
F3.1264210121072794e-08
sI1750
F4.954120046211855e-08
sI600
F0.0
sI1500
F4.9588271185153505e-08
sI100
F3.779270358320295e-08
sI1000
F0.0
sI1900
F1.3651255219544943e-07
sI500
F3.372121446693124e-08
sI1400
F0.0
ssI1750
(dp23
I900
F0.0
sI10
F3.8800566548634025e-08
sI1550
F1.3236482129634223e-07
sI400
F8.197147192826248e-08
sI1300
F3.289567385797007e-07
sI150
F7.89037687800066e-08
sI25
F0.0
sI800
F7.315634465789688e-08
sI1700
F1.4496843648549668e-07
sI1450
F0.0
sI300
F1.3705014865119208e-07
sI1200
F3.7057718345449096e-07
sI50
F0.0
sI700
F4.7099296775719925e-08
sI1725
F2.1757885813176297e-07
sI1600
F3.4999032513590086e-07
sI200
F3.1109145390511304e-07
sI1740
F7.227202768266969e-08
sI1100
F0.0
sI600
F6.103441292921734e-08
sI1500
F8.203777918423584e-08
sI100
F0.0
sI1000
F1.23808708656332e-07
sI1650
F9.312590744382665e-08
sI500
F9.087787796663052e-08
sI1400
F8.179958937718913e-08
ssI1500
(dp24
I900
F1.5149675289937982e-07
sI10
F3.1121435614154933e-07
sI400
F3.47373210542415e-07
sI1300
F1.2715243043702625e-06
sI150
F0.0
sI25
F0.0
sI800
F1.5005515551825143e-07
sI1450
F5.953261507871422e-07
sI300
F1.233557334761862e-06
sI1200
F4.657257320344938e-07
sI50
F0.0
sI700
F4.5331437648840276e-07
sI1475
F8.747457308082677e-07
sI1350
F1.5270663806286626e-07
sI200
F1.9067746029397963e-06
sI1100
F8.830652246969126e-07
sI1490
F0.0
sI600
F9.63957274640508e-07
sI1250
F8.278144173962118e-07
sI100
F2.664281116486277e-07
sI1000
F6.94119266215279e-07
sI500
F3.0082754538764417e-07
sI1400
F6.881415011102368e-07
ssI2400
(dp25
I900
F7.803365412513249e-09
sI1800
F5.786813557300515e-09
sI10
F0.0
sI400
F8.028958146511034e-09
sI1300
F5.25323858671744e-09
sI150
F0.0
sI2200
F0.0
sI25
F0.0
sI800
F0.0
sI1700
F6.643851591671679e-09
sI300
F3.1535274464129263e-09
sI2350
F7.773818745888442e-09
sI1200
F0.0
sI50
F0.0
sI2100
F6.7768540661688265e-09
sI700
F3.6481703252229458e-09
sI1600
F2.1966537683040138e-08
sI2375
F4.758340404301713e-09
sI200
F1.260985548471093e-08
sI2250
F7.281177301589531e-09
sI1100
F0.0
sI2000
F8.264428693164242e-09
sI2390
F0.0
sI600
F5.290077006726655e-09
sI1500
F4.489072306277469e-09
sI100
F0.0
sI2150
F7.973696872556361e-09
sI1000
F0.0
sI1900
F6.317137221661402e-09
sI500
F0.0
sI1400
F0.0
sI2300
F0.0
ssI1250
(dp26
I800
F7.936517481515457e-07
sI1200
F1.357755811298637e-06
sI100
F1.6157974359192755e-06
sI950
F6.411500709935105e-07
sI200
F9.777656026233063e-07
sI1100
F5.401916237821488e-06
sI10
F8.850378318906291e-07
sI300
F2.4240313757573626e-06
sI1240
F3.3111664563474284e-06
sI400
F9.449919410619983e-07
sI1000
F0.0
sI50
F0.0
sI500
F1.420435833444671e-06
sI150
F3.655230254886051e-06
sI1225
F1.2317379483681146e-06
sI600
F2.999141084438084e-06
sI25
F0.0
sI900
F2.46941858995562e-06
sI700
F3.2321536016186266e-06
sI1050
F0.0
sI1150
F0.0
ssI2150
(dp27
I2050
F0.0
sI900
F0.0
sI1800
F2.381626259522483e-08
sI10
F0.0
sI400
F0.0
sI1300
F0.0
sI150
F0.0
sI25
F0.0
sI1950
F1.599271511541028e-08
sI800
F3.93470574256184e-08
sI1700
F2.0759580121119412e-08
sI2140
F1.5478166933568084e-08
sI300
F1.3731096289767183e-08
sI1200
F0.0
sI50
F4.685921952565703e-08
sI2100
F7.520415809265597e-08
sI1850
F1.9342203346990667e-08
sI700
F0.0
sI1600
F4.528451856549395e-08
sI200
F0.0
sI1100
F1.7861673096671334e-08
sI2125
F0.0
sI2000
F1.4769034625962445e-09
sI600
F1.4816625807379273e-08
sI1500
F2.18135093920462e-08
sI100
F0.0
sI1000
F4.348757366437686e-08
sI1900
F5.380032506243774e-09
sI500
F1.7977481112756087e-08
sI1400
F3.142407331179889e-08
ssI1000
(dp28
I800
F1.7496873808917286e-05
sI100
F8.381973126276883e-06
sI950
F1.0399737793837414e-05
sI200
F4.841972776645487e-06
sI10
F1.8560144664418904e-06
sI300
F1.0728926028485707e-05
sI850
F6.282603618333234e-06
sI750
F7.413857017895865e-06
sI975
F1.1059025830719185e-05
sI400
F1.222388689701781e-05
sI50
F9.397865830294139e-07
sI500
F8.524007317997755e-06
sI150
F9.017683793929511e-06
sI600
F6.207457495719745e-06
sI25
F3.929306156334838e-06
sI900
F1.6627079947785197e-05
sI700
F7.107422763965751e-06
sI990
F6.652358503413513e-06
ssI1900
(dp29
I900
F6.71033309203105e-08
sI1800
F7.111729803793126e-08
sI10
F0.0
sI400
F0.0
sI1300
F5.959268171428685e-08
sI150
F2.5439449873814436e-08
sI25
F0.0
sI800
F7.418207469430432e-08
sI1700
F1.2156969600232323e-07
sI300
F5.525514905600088e-08
sI1200
F1.2293011567525146e-07
sI50
F3.637283445185406e-08
sI1850
F4.2353612954585484e-08
sI700
F4.4275760478512525e-08
sI1600
F1.5181132699192841e-07
sI200
F1.0523709871139222e-07
sI1100
F7.571720585734252e-08
sI1875
F9.127120505921107e-08
sI1750
F1.2226546965408495e-07
sI600
F8.976051195692194e-08
sI1500
F9.809162223811952e-08
sI1890
F1.0296833360041838e-07
sI100
F1.5146868533375942e-07
sI1000
F4.540362306671386e-08
sI1650
F0.0
sI500
F7.885752794276316e-08
sI1400
F6.509856748682105e-08
ssI1650
(dp30
I900
F0.0
sI10
F7.993032554669734e-08
sI1550
F1.6302498594220125e-07
sI400
F0.0
sI1300
F1.2072383409438138e-07
sI150
F1.566506308774242e-07
sI25
F0.0
sI800
F2.0363215537711666e-08
sI1450
F7.208936141075524e-07
sI300
F2.5472784513889564e-07
sI1200
F3.781378101993112e-07
sI50
F0.0
sI700
F1.3224838166436395e-07
sI1600
F2.461737262077993e-07
sI1350
F2.311958016247952e-07
sI200
F2.7496428430640204e-07
sI1100
F0.0
sI600
F6.961246944433297e-09
sI1625
F5.609158549033853e-08
sI1500
F1.8484250198187437e-07
sI100
F0.0
sI1000
F1.2242158696399805e-07
sI1640
F1.0017009004755416e-07
sI500
F2.646764255910684e-07
sI1400
F2.521814462512697e-07
ssI1400
(dp31
I900
F9.926554363591629e-07
sI10
F0.0
sI400
F0.0
sI1300
F1.1611305819483443e-06
sI150
F1.5572951019078222e-06
sI25
F0.0
sI800
F1.9183873908403413e-06
sI300
F7.614858291208208e-07
sI1200
F1.016038400290516e-06
sI50
F0.0
sI700
F2.828527950240724e-06
sI1350
F0.0
sI200
F8.848943521499103e-07
sI1100
F5.733252247711708e-07
sI600
F0.0
sI1375
F1.259986039165167e-06
sI1250
F1.1246212658067054e-06
sI100
F0.0
sI1000
F0.0
sI1390
F2.3381134405667596e-06
sI500
F6.514732811018135e-07
sI1150
F1.07766275176583e-06
ssI2300
(dp32
I2050
F0.0
sI900
F1.1431307406477136e-08
sI1800
F8.161731259755795e-09
sI10
F8.680386529677935e-09
sI400
F6.717907069584513e-09
sI1300
F1.0543845257692288e-08
sI150
F1.035906097681087e-08
sI2200
F1.0604610078591071e-08
sI25
F0.0
sI800
F0.0
sI1700
F5.594244972724569e-09
sI300
F2.645228662742327e-08
sI1200
F1.9586181192676827e-08
sI50
F0.0
sI2100
F1.6992674704322716e-08
sI700
F0.0
sI1600
F9.396164198355781e-09
sI200
F0.0
sI2250
F1.0021936019582728e-08
sI1100
F0.0
sI2000
F0.0
sI600
F1.1456684252708491e-08
sI1500
F1.9245749387485272e-08
sI2275
F0.0
sI100
F0.0
sI2150
F0.0
sI1000
F9.489167062969913e-09
sI1900
F7.04372022346395e-09
sI2290
F0.0
sI500
F0.0
sI1400
F1.9196635247372888e-08
ssI1150
(dp33
I800
F1.4746087204441495e-06
sI1140
F3.5392072524529843e-06
sI100
F2.7098951476155015e-06
sI950
F2.032846497075353e-06
sI200
F1.8218876273794623e-06
sI1100
F8.076426260892565e-06
sI10
F8.168305758716312e-07
sI300
F9.977001422923446e-08
sI850
F4.1848209337430975e-06
sI400
F3.875317284352646e-06
sI1000
F4.776052373323723e-06
sI50
F1.7055170188169725e-07
sI500
F1.7228670490867326e-06
sI150
F2.589024222083517e-06
sI600
F5.581535959173309e-07
sI25
F1.1600299443611915e-06
sI900
F4.705113165699089e-06
sI700
F5.4183031026192445e-06
sI1050
F4.276413026705335e-06
sI1125
F6.827586888842398e-06
ss.