(dp0
I640
(dp1
I480
F0.0016241194618138114
sI355
F0.0020665818801881303
sI580
F0.0005447090383328627
sI230
F0.0024116953012286333
sI455
F0.001754506989037066
sI330
F0.001994224396997573
sI555
F0.0011773550342322303
sI205
F0.0024117038375313623
sI430
F0.001828290018335553
sI305
F0.002260396748028926
sI530
F0.001258562217547411
sI405
F0.002030135898113937
sI630
F2.1978181926887304e-05
sI280
F0.002222649104893191
sI505
F0.001517676559664578
sI380
F0.0020768365455540645
sI605
F0.00023574770405498452
sI255
F0.002196529017688273
ssI515
(dp2
I480
F0.0008826624847462227
sI355
F0.004238694612980273
sI230
F0.006178932905835309
sI455
F0.0020451522096504924
sI330
F0.004988946516827893
sI205
F0.006077011396401825
sI430
F0.0031954900568658116
sI305
F0.005223791807945809
sI405
F0.003489063459216283
sI280
F0.00540314268693326
sI505
F0.0
sI380
F0.004465146946324116
sI255
F0.005161228106962983
ssI390
(dp3
I355
F0.002716278087354332
sI230
F0.0147859623074174
sI330
F0.006457495310044364
sI205
F0.018627048747615487
sI305
F0.010769421384571955
sI280
F0.011954493805761255
sI380
F0.00020151809882702925
sI255
F0.016234249356588397
ssI265
(dp4
I205
F0.027572044130456604
sI230
F0.010572254215104288
sI255
F0.00044514355588931185
ssI915
(dp5
I905
F3.954925481163132e-06
sI780
F0.00021981520013281047
sI655
F0.0002688432145836718
sI530
F0.0003513022162774699
sI405
F0.00029937326210243705
sI280
F0.000325017466050821
sI805
F0.0001567765832296372
sI680
F0.00023991851787397357
sI555
F0.0003335822213295233
sI430
F0.00034479072839680965
sI305
F0.0003606750826381091
sI830
F0.00014912756731818853
sI705
F0.000256988425907744
sI580
F0.0003187751110883
sI455
F0.00034661557585796135
sI330
F0.0003827360597430735
sI205
F0.0003457432594554039
sI855
F0.00010485913512591649
sI730
F0.0002519528978211965
sI605
F0.00030149688838212145
sI480
F0.00035553190412081963
sI355
F0.0003269737880928481
sI230
F0.0003639962090640698
sI880
F3.086369061169707e-05
sI755
F0.00025241757656514763
sI630
F0.0002758475655939188
sI505
F0.0003512498550800069
sI380
F0.000325761349266529
sI255
F0.000329750309128935
ssI790
(dp6
I780
F5.354173648056127e-06
sI655
F0.0005952456931671129
sI530
F0.0006768470233620989
sI405
F0.0007050250976073765
sI280
F0.0007935397863876725
sI680
F0.0003865815489142631
sI555
F0.0007540150341430677
sI430
F0.0007758986441384215
sI305
F0.0008128097955127502
sI705
F0.00038646392519939814
sI580
F0.0006080329741547062
sI455
F0.0007830689669636212
sI330
F0.0007901488059980799
sI205
F0.0007914380730188893
sI730
F0.00020581440630230882
sI605
F0.0006339439709221077
sI480
F0.0007554052164104341
sI355
F0.0007730203499353564
sI230
F0.0007546826909681489
sI755
F4.508715070741036e-05
sI630
F0.0005813168087978819
sI505
F0.0006547019785693611
sI380
F0.0007632233635771236
sI255
F0.0008992690860997833
ssI665
(dp7
I480
F0.0015611482216189479
sI355
F0.0019439085654298022
sI580
F0.0010159103317242926
sI230
F0.0020917812775310784
sI455
F0.0014097828371750303
sI330
F0.0017600014564341437
sI555
F0.001013141867935087
sI205
F0.001958237751709225
sI430
F0.001687775577327733
sI655
F1.178536282143711e-05
sI305
F0.0017497237827574085
sI530
F0.0013425301109706023
sI405
F0.0016116475616974847
sI630
F0.00021064639712821864
sI280
F0.0017927240854565983
sI505
F0.0013192675681663948
sI380
F0.0017509586919315287
sI605
F0.0006179906249162937
sI255
F0.0020887539860427345
ssI540
(dp8
I480
F0.0014364986021945538
sI355
F0.0040401802278686285
sI230
F0.005197298850094168
sI455
F0.002429954267752887
sI330
F0.0041984223765236936
sI205
F0.004541534468966637
sI430
F0.003206034853997242
sI305
F0.004158836015207306
sI530
F1.8536546063318532e-05
sI405
F0.003840332129251387
sI280
F0.004597686211492719
sI505
F0.0004908507905014692
sI380
F0.0037888736753581924
sI255
F0.004325830786123698
ssI415
(dp9
I355
F0.005610458834291049
sI230
F0.013124082403835583
sI330
F0.008998937703497339
sI205
F0.015164272046182646
sI305
F0.009516267795406114
sI405
F5.8971171054182735e-05
sI280
F0.011442911146143429
sI380
F0.0018544753074261906
sI255
F0.012023687131194772
ssI290
(dp10
I280
F0.0003341476053886884
sI205
F0.038104679503396716
sI230
F0.01964679733768662
sI255
F0.006243587967022845
ssI940
(dp11
I905
F2.6412127544859877e-05
sI780
F0.00020756880123979602
sI655
F0.0002468026401428989
sI530
F0.0002709743337444571
sI405
F0.000269002855274399
sI280
F0.000263222743612003
sI930
F1.6608519363186565e-06
sI805
F0.0001756215200089442
sI680
F0.0002063089180866394
sI555
F0.00024033611309742255
sI430
F0.00030787557010706165
sI305
F0.0002923913232515388
sI830
F0.0001501212503833519
sI705
F0.00021773991538463617
sI580
F0.0002761983938288475
sI455
F0.0002875317068349832
sI330
F0.0002991181465925624
sI205
F0.0003600742191406173
sI855
F9.732874994089366e-05
sI730
F0.0002219709324427726
sI605
F0.00026116073143667964
sI480
F0.00026384561422978977
sI355
F0.00028837695461110947
sI230
F0.0003135332571865074
sI880
F7.786622717641665e-05
sI755
F0.00020312445876970216
sI630
F0.0002686023183472977
sI505
F0.00030799194738675783
sI380
F0.00028641121388177344
sI255
F0.00034289315358740786
ssI815
(dp12
I780
F5.8937349618052176e-05
sI655
F0.0005087574278672656
sI530
F0.0006440861124197131
sI405
F0.0006531768892108497
sI280
F0.0006225879653603291
sI805
F0.0
sI680
F0.00045904021507375494
sI555
F0.0006152301942406431
sI430
F0.0006548507298092805
sI305
F0.0006665825814248813
sI705
F0.0003225867276762266
sI580
F0.0005419443521550815
sI455
F0.0006438305542473113
sI330
F0.000615037338315975
sI205
F0.0007416844063754775
sI730
F0.00026407353477733963
sI605
F0.0004785608736955845
sI480
F0.0006201886943262922
sI355
F0.0006681948333410304
sI230
F0.0007456818446813343
sI755
F0.00019623376417632332
sI630
F0.0005109402575116837
sI505
F0.0005772988120051467
sI380
F0.0005450997255051536
sI255
F0.0006470999485173744
ssI690
(dp13
I480
F0.0012796009026663291
sI355
F0.0014195642828612716
sI580
F0.0007367279038651048
sI230
F0.0015922309026732276
sI455
F0.001415331248568303
sI680
F5.370278942916643e-06
sI330
F0.0016114632130511271
sI555
F0.0011060011289835562
sI205
F0.0016485559416872064
sI430
F0.0013511596462406907
sI655
F0.0001535325622014987
sI305
F0.0016061084456463026
sI530
F0.001122055637431906
sI405
F0.0014913773880548466
sI630
F0.00039686937400971144
sI280
F0.0014519549633383595
sI505
F0.0011973653040972076
sI380
F0.0014864078217618217
sI605
F0.0008329813657909562
sI255
F0.001693905462117318
ssI565
(dp14
I480
F0.0018948236104400517
sI355
F0.0031117529895719085
sI230
F0.0037950549631210312
sI455
F0.0022956238567625594
sI330
F0.003354372226429962
sI555
F3.3054693297607684e-05
sI205
F0.004217572535187449
sI430
F0.0028768402239543484
sI305
F0.003445832743967521
sI530
F0.0004231279320179033
sI405
F0.0029414764692192036
sI280
F0.003984396851276672
sI505
F0.001211988865718113
sI380
F0.0032069842473965216
sI255
F0.004326367925638414
ssI440
(dp15
I355
F0.006416306364886493
sI230
F0.009444364045287005
sI330
F0.007555500938768194
sI205
F0.011199984396008769
sI430
F4.3439787206476425e-05
sI305
F0.009632950453303602
sI405
F0.0017454114981868257
sI280
F0.010478613382874384
sI380
F0.003530171527938806
sI255
F0.011307950366311804
ssI315
(dp16
I280
F0.00519016563626912
sI305
F0.0
sI205
F0.028770388437417745
sI230
F0.02724113135294105
sI255
F0.014123429260739315
ssI965
(dp17
I905
F6.130940082678239e-05
sI780
F0.00019402686351299516
sI655
F0.00025822313630917214
sI530
F0.00020550297136803984
sI405
F0.00024363502292282046
sI280
F0.00021993053402015358
sI930
F2.9527442374340407e-05
sI805
F0.00018221925557956615
sI680
F0.00021575451636534677
sI555
F0.0002208197688295912
sI430
F0.0002357909550482687
sI305
F0.00028362663134702575
sI955
F1.667784427505558e-06
sI830
F0.00014565854922504143
sI705
F0.00019241958766386596
sI580
F0.00023180274573573356
sI455
F0.00023635279715899634
sI330
F0.00021793293182919372
sI205
F0.00026124871235150044
sI855
F0.00015400048602518513
sI730
F0.00019519437183533817
sI605
F0.00022632616945259535
sI480
F0.00025714222902351486
sI355
F0.00025077511210773196
sI230
F0.0002717111790706171
sI880
F0.00011576239196007527
sI755
F0.00020829530917645738
sI630
F0.00020955366444855707
sI505
F0.00022012905262342364
sI380
F0.00029178172480280785
sI255
F0.00025348882680692854
ssI840
(dp18
I780
F0.0001653943438020513
sI655
F0.0004395682714543659
sI530
F0.0005500689019757053
sI405
F0.000510165385099585
sI280
F0.0005941244139881411
sI805
F4.6831778022902654e-05
sI680
F0.00039670669867729704
sI555
F0.0005012245856175226
sI430
F0.0005183141756731264
sI305
F0.0005713478792906023
sI830
F6.3640092434158425e-06
sI705
F0.0003655155078953988
sI580
F0.00045407666946741616
sI455
F0.0004731566416020207
sI330
F0.0004770581816804654
sI205
F0.0006681369089770326
sI730
F0.00024187634239120854
sI605
F0.0004524562493194968
sI480
F0.0005038767868805516
sI355
F0.0005587372317775862
sI230
F0.0006001511473423532
sI755
F0.00027420922267114674
sI630
F0.00040313520499620436
sI505
F0.0004878547841181588
sI380
F0.000523864162432728
sI255
F0.0005384125860084229
ssI715
(dp19
I480
F0.0010526592362665426
sI705
F1.2237964332370943e-05
sI355
F0.0015018437756039638
sI580
F0.000823337452328024
sI230
F0.0014087317440296967
sI455
F0.0011697755060981134
sI680
F0.0001836996017604886
sI330
F0.001117600726355004
sI555
F0.000942851741192833
sI205
F0.0013880035697996088
sI430
F0.0012099303954593858
sI655
F0.0004171148893670326
sI305
F0.0013201124198144432
sI530
F0.0010520967063045626
sI405
F0.0013205423014731907
sI630
F0.0006119727813073606
sI280
F0.0012543952000057263
sI505
F0.0009623143738016842
sI380
F0.0013112272810011782
sI605
F0.0007114904487424764
sI255
F0.001261362979822619
ssI590
(dp20
I480
F0.0018192665320039506
sI355
F0.002889049907587114
sI580
F2.288528176477716e-05
sI230
F0.003825114975161896
sI455
F0.0024685375911289746
sI330
F0.0029994982833621915
sI555
F0.0004514020820595861
sI205
F0.0032685757355413077
sI430
F0.00280587550203451
sI305
F0.0031222100662703606
sI530
F0.0011117648483984126
sI405
F0.0024666351689470235
sI280
F0.003379286129213529
sI505
F0.0016426131609877576
sI380
F0.00283685035127654
sI255
F0.0030782851003098516
ssI465
(dp21
I355
F0.005308234299789171
sI230
F0.008044403900564783
sI455
F0.0
sI330
F0.006693296272692482
sI205
F0.007974999907723419
sI430
F0.0009890908410863366
sI305
F0.00715870779534695
sI405
F0.002744759043837784
sI280
F0.007949503927187724
sI380
F0.004720840719101966
sI255
F0.009444177582610444
ssI340
(dp22
I230
F0.019840875724483755
sI330
F0.0
sI205
F0.024207449884112577
sI305
F0.003926410199369546
sI280
F0.009164323254714985
sI255
F0.019560683565472022
ssI215
(dp23
I205
F0.0008700743915236845
ssI990
(dp24
I905
F0.00010940256274883223
sI780
F0.00014757353727421748
sI655
F0.00018693055510885737
sI530
F0.00019650069843853612
sI405
F0.00021032340993937457
sI280
F0.0002271212133490892
sI930
F6.929439701259214e-05
sI805
F0.00015158182571858967
sI680
F0.0002284904106026503
sI555
F0.00020568735906322595
sI430
F0.00020217466234787954
sI305
F0.00020772961704829473
sI955
F3.07706122892704e-05
sI830
F0.00015069931290541625
sI705
F0.000179490113894736
sI580
F0.0001930280348495673
sI455
F0.00022291492607457014
sI330
F0.00021534809784614446
sI205
F0.0002566979780458514
sI980
F4.086807692692174e-06
sI855
F0.00015041487302527794
sI730
F0.0001728850737319865
sI605
F0.000186048518720618
sI480
F0.00020790239729868065
sI355
F0.00024980954753549983
sI230
F0.00020006872054294798
sI880
F0.00011657910450851172
sI755
F0.0001689011597766268
sI630
F0.0002227985121578117
sI505
F0.0002334352832912144
sI380
F0.0002120909608492064
sI255
F0.00022613912508022839
ssI865
(dp25
I780
F0.0002267889378673146
sI655
F0.0003626012167079831
sI530
F0.000420681938347045
sI405
F0.00047953543222334507
sI280
F0.000544218742405822
sI805
F0.00011855006538252015
sI680
F0.00039418974666394804
sI555
F0.0004028014115341978
sI430
F0.0005344405515479572
sI305
F0.00047032098527618007
sI830
F5.02863030468946e-05
sI705
F0.000323604225410942
sI580
F0.0004273176871998785
sI455
F0.00045214390220625
sI330
F0.00042582125260206405
sI205
F0.0004570203889306785
sI855
F3.349486992080547e-06
sI730
F0.0003139385136199645
sI605
F0.00040480952982985236
sI480
F0.00043725944769507747
sI355
F0.00045713861345950276
sI230
F0.0004996904748711654
sI755
F0.00027690395593413106
sI630
F0.00038268293353635593
sI505
F0.0005024882693379657
sI380
F0.00044766950112600087
sI255
F0.00043646822807199073
ssI740
(dp26
I655
F0.0004917256040849813
sI530
F0.0009371779538210503
sI405
F0.0011234386190403934
sI280
F0.0012338120671750922
sI680
F0.0003158626292566838
sI555
F0.0009930730930493609
sI430
F0.0010209327320327946
sI305
F0.0009672959928643043
sI705
F0.0001300406026584052
sI580
F0.0007144488070900751
sI455
F0.0008863511678017039
sI330
F0.0009956053099501152
sI205
F0.0011412266372952218
sI730
F0.0
sI605
F0.0007565803408085687
sI480
F0.0009557069877551991
sI355
F0.00107929036557939
sI230
F0.0013184441046956228
sI630
F0.000709365284731953
sI505
F0.0009382034029290848
sI380
F0.0011717806538462717
sI255
F0.001186415783616563
ssI615
(dp27
I480
F0.0020210355331719766
sI355
F0.002433386543192334
sI580
F0.00029824432808702003
sI230
F0.0027101367217663326
sI455
F0.0019063284963203961
sI330
F0.002658382691974693
sI555
F0.0007498279037412301
sI205
F0.002750334258054253
sI430
F0.0020928192224178863
sI305
F0.002550797704950097
sI530
F0.0012710811185969017
sI405
F0.0021551915987700456
sI280
F0.0030413099894979604
sI505
F0.0017310566295714945
sI380
F0.0024444080544405436
sI605
F9.175038373308645e-06
sI255
F0.002568406077443498
ssI490
(dp28
I480
F0.0
sI355
F0.005608451463154578
sI230
F0.007052271297388671
sI455
F0.0007897836963600601
sI330
F0.006290148471156089
sI205
F0.007502866707891991
sI430
F0.0023653166734632146
sI305
F0.00646106967014911
sI405
F0.0038391785141824726
sI280
F0.0067693298385179314
sI380
F0.004889337350649509
sI255
F0.006753146797438365
ssI365
(dp29
I355
F0.00010946014397070805
sI230
F0.019856107466422492
sI330
F0.0023796630574957683
sI205
F0.022663266769569708
sI305
F0.0081620097028406
sI280
F0.014811867016519053
sI255
F0.014846412237931537
ssI240
(dp30
I205
F0.011312647968355027
sI230
F0.0009580001715580064
ssI1015
(dp31
I905
F0.00010010362262497408
sI780
F0.00015394248960370443
sI655
F0.0001663081698706422
sI530
F0.00018890071088594813
sI405
F0.00017922589028776883
sI280
F0.00019721897761292636
sI930
F8.3651362999478e-05
sI805
F0.00014866424972066424
sI680
F0.000158965341996112
sI555
F0.0001419275184994591
sI430
F0.00016020883694765187
sI305
F0.0002144568604210096
sI955
F4.167041609672341e-05
sI830
F0.00013405837028210304
sI705
F0.00016765282983223094
sI580
F0.00015205021864446303
sI455
F0.00018766650369211418
sI330
F0.00017863313610311785
sI205
F0.00018742477121700492
sI980
F1.4652953181946568e-05
sI855
F0.0001268057441489968
sI730
F0.0001433568866309051
sI605
F0.0001667082031293757
sI480
F0.0001831592941578866
sI355
F0.00020510151469384176
sI230
F0.00020500278669090282
sI1005
F1.0104451156474605e-06
sI880
F0.00010643665581080572
sI755
F0.0001414031691422367
sI630
F0.00015750650656247092
sI505
F0.00017945717397483806
sI380
F0.000205213423297182
sI255
F0.00017416115151553494
ssI890
(dp32
I780
F0.00021517127769668575
sI655
F0.0002810094881358109
sI530
F0.0003707310376406932
sI405
F0.0004646051216669695
sI280
F0.0003826745234223593
sI805
F0.00023524284115698514
sI680
F0.00033156847010322
sI555
F0.00035680168030463176
sI430
F0.00035566389604442506
sI305
F0.00041074739429519116
sI830
F7.297042632342186e-05
sI705
F0.00031417296057923674
sI580
F0.00035648268442399
sI455
F0.0003567517030204135
sI330
F0.00041657643641564775
sI205
F0.0004171754614009929
sI855
F3.62942235955056e-05
sI730
F0.00029326501688365676
sI605
F0.000343516046445873
sI480
F0.00035837835025608815
sI355
F0.00041039234257612934
sI230
F0.00039776358023431066
sI880
F7.178445442071918e-06
sI755
F0.00028114949352798136
sI630
F0.0003352973817901662
sI505
F0.0003782042026391609
sI380
F0.000365074629814545
sI255
F0.0004357997715581315
ssI765
(dp33
I655
F0.00048394427090345265
sI530
F0.0006968823111650848
sI405
F0.0009258553266777777
sI280
F0.0009664023259168284
sI680
F0.00042325611580713857
sI555
F0.0006955962900213465
sI430
F0.0008989172310987574
sI305
F0.0009410463035730017
sI705
F0.00025987611417003825
sI580
F0.0005795418914494642
sI455
F0.0007972327199026709
sI330
F0.0009313452232222873
sI205
F0.0009724270124777914
sI730
F0.00012025133317533717
sI605
F0.0007384141704046164
sI480
F0.0007922954436400913
sI355
F0.0009022325652640664
sI230
F0.0009457770858671396
sI755
F0.0
sI630
F0.0006828813217011005
sI505
F0.000870200122336144
sI380
F0.0009691315295760752
sI255
F0.0009165411531651555
ss.