(dp0
I900
(dp1
I900
F0.18568978373002382
sI650
F0.38379283551208476
sI400
F0.08940965608414278
sI1300
F0.02382260193405481
sI1050
F0.08035712165467729
sI800
F0.3503987109483438
sI550
F0.019036231238107562
sI1450
F0.01121047583197571
sI300
F0.0
sI1200
F0.03822784014533631
sI950
F0.1428551716433897
sI700
F0.4569769055181052
sI450
F0.038989886767362515
sI1350
F0.017836275183327883
sI200
F0.0
sI1100
F0.057502239236492676
sI850
F0.25000310204436277
sI600
F0.009646743124360988
sI1500
F0.008199460167559784
sI350
F0.0917341932777365
sI1250
F0.02757579721573288
sI1000
F0.11636966873072567
sI750
F0.41109361501112823
sI500
F0.0432328900203248
sI1400
F0.011706662723245094
sI250
F0.0
sI1150
F0.04766686386701387
ssI650
(dp2
I900
F0.21634371791950188
sI650
F1.0131243965066767
sI400
F0.12600739717099843
sI1300
F0.023889048052281515
sI1050
F0.08912141343080057
sI800
F0.3599192696131147
sI550
F1.4727083864275228
sI1450
F0.01165584784415775
sI300
F0.0
sI1200
F0.0391871122814474
sI950
F0.15459012702739602
sI700
F0.6891875243072195
sI450
F0.03414729866296865
sI1350
F0.01973630126202446
sI200
F0.0
sI1100
F0.07053048206984544
sI850
F0.269874658803605
sI600
F1.2902530370562
sI1500
F0.008869885325205404
sI350
F0.16983608076306825
sI1250
F0.027499770666227982
sI1000
F0.10961692495925901
sI750
F0.4752123407085972
sI500
F0.7394936655612718
sI1400
F0.014009803763163855
sI250
F0.0
sI1150
F0.046934413791785125
ssI400
(dp3
I900
F0.23303310084742837
sI650
F1.1657237973513104
sI400
F8.370458799833605
sI1300
F0.026222751633287772
sI1050
F0.09325160750098054
sI800
F0.4392702134334035
sI550
F2.4982709438519963
sI1450
F0.012489228715411664
sI300
F0.0
sI1200
F0.04123286353918355
sI950
F0.1560486417851765
sI700
F0.8368192484654486
sI450
F5.1674212707775515
sI1350
F0.020380080045290825
sI200
F0.0
sI1100
F0.06741200997307907
sI850
F0.3258494870503858
sI600
F1.6970408020517016
sI1500
F0.010274632538319017
sI350
F2.587444513169455
sI1250
F0.03173385287449154
sI1000
F0.1130838650178328
sI750
F0.5108819269306
sI500
F3.7523579980673274
sI1400
F0.015847209566628138
sI250
F0.0
sI1150
F0.056865151885898364
ssI1300
(dp4
I900
F0.05593241114979322
sI650
F0.005883320540095826
sI400
F0.16544939587292495
sI1300
F0.021275326167000584
sI1050
F0.06966129851463855
sI800
F0.0
sI550
F0.02089828142790402
sI1450
F0.011540543389104908
sI300
F0.0
sI1200
F0.034838010525255904
sI950
F0.09391920079024006
sI700
F0.009032943815684372
sI450
F0.096289745478562
sI1350
F0.01772564912917641
sI200
F0.0
sI1100
F0.05301855284653674
sI850
F0.024636921005367657
sI600
F0.019981634620807473
sI1500
F0.008701920461065858
sI350
F0.1916667699675668
sI1250
F0.032291534706386515
sI1000
F0.06902810944059623
sI750
F0.0027943165129767746
sI500
F0.0373330826774693
sI1400
F0.011856280477140704
sI250
F0.0
sI1150
F0.03954749455083551
ssI1050
(dp5
I900
F0.14006504045120244
sI650
F0.0
sI400
F0.07685751209956344
sI1300
F0.025674261417976584
sI1050
F0.07363425016469059
sI800
F0.2614919707503029
sI550
F0.04643319632499403
sI1450
F0.010258450706568835
sI300
F0.0
sI1200
F0.032499505147004136
sI950
F0.13314844740697623
sI700
F0.02907958883888332
sI450
F0.06428106526247263
sI1350
F0.015068755510571373
sI200
F0.0
sI1100
F0.06708484220639431
sI850
F0.1903779789465749
sI600
F0.009399785870898061
sI1500
F0.008660665812769811
sI350
F0.17969930175834492
sI1250
F0.02813139009650457
sI1000
F0.09559585521102792
sI750
F0.14596965000306797
sI500
F0.04065684346624555
sI1400
F0.01470228696051441
sI250
F0.0
sI1150
F0.04920201208120906
ssI800
(dp6
I900
F0.20564424068210055
sI650
F0.6670676098357327
sI400
F0.04522887084927831
sI1300
F0.022635078008712416
sI1050
F0.09774724575958478
sI800
F0.2812127371322077
sI550
F0.01726145896466401
sI1450
F0.011344696957275397
sI300
F0.0
sI1200
F0.03619487461761186
sI950
F0.16249615281632693
sI700
F0.631424468890572
sI450
F0.055346804621873726
sI1350
F0.018277156098522613
sI200
F0.0
sI1100
F0.07335465173050397
sI850
F0.23989335524187294
sI600
F0.44786959938305493
sI1500
F0.008675775947598335
sI350
F0.0
sI1250
F0.030443153723290605
sI1000
F0.09992903855483752
sI750
F0.35797248028767603
sI500
F0.08153904406785317
sI1400
F0.014124945448813849
sI250
F0.0
sI1150
F0.04800318886488544
ssI550
(dp7
I900
F0.21455567932017894
sI650
F1.0675366650408815
sI400
F0.10225026265657737
sI1300
F0.02543879286920746
sI1050
F0.09317144664713994
sI800
F0.41984679428165117
sI550
F2.099965405969866
sI1450
F0.012150274110439768
sI300
F0.0
sI1200
F0.03886274040509429
sI950
F0.16610680922920143
sI700
F0.7157254080752599
sI450
F2.0161004034558982
sI1350
F0.02041254431887947
sI200
F0.0
sI1100
F0.06967733654433367
sI850
F0.2921424568301437
sI600
F1.5318294722347772
sI1500
F0.009434802345619832
sI350
F0.0
sI1250
F0.03004905259480106
sI1000
F0.11891825097509673
sI750
F0.5935505694056566
sI500
F2.5536928425806926
sI1400
F0.014819254804418253
sI250
F0.0
sI1150
F0.05045763981874563
ssI1450
(dp8
I900
F0.0029271178596346355
sI650
F0.013147084405837091
sI400
F0.0799331084560718
sI1300
F0.021546324610639756
sI1050
F0.04851487745465038
sI800
F0.006637543067082305
sI550
F0.02966349217740628
sI1450
F0.009074117530798908
sI300
F0.0
sI1200
F0.027324186632492174
sI950
F0.026528836555789193
sI700
F0.009993310062186114
sI450
F0.1207654012410119
sI1350
F0.017001476788464604
sI200
F0.0
sI1100
F0.05825353774846951
sI850
F0.003539947689544725
sI600
F0.0
sI1500
F0.008733606292754815
sI350
F0.24789514590947928
sI1250
F0.025322213669739763
sI1000
F0.0461604239996087
sI750
F0.002971737017283324
sI500
F0.011071403425239112
sI1400
F0.012770584076443468
sI250
F0.0
sI1150
F0.03841226112368172
ssI300
(dp9
I900
F0.2195749698249429
sI650
F1.0749773939735874
sI400
F11.511041865496974
sI1300
F0.025360125456986116
sI1050
F0.09202662292814034
sI800
F0.40355486468087015
sI550
F2.5855008786997105
sI1450
F0.012240930855687697
sI300
F9.482461888780112
sI1200
F0.042261839607676814
sI950
F0.15827914565736717
sI700
F0.7228845594175628
sI450
F5.956166501126701
sI1350
F0.02026158097808449
sI200
F0.0
sI1100
F0.07854205952493484
sI850
F0.27110690852024494
sI600
F1.6061815749477537
sI1500
F0.009071316041316151
sI350
F19.02905386685185
sI1250
F0.03026390536846866
sI1000
F0.10691268582614366
sI750
F0.5750013158668409
sI500
F4.079758508890614
sI1400
F0.014927671538386679
sI250
F0.0
sI1150
F0.0510894781625573
ssI1200
(dp10
I900
F0.12482699967776391
sI650
F0.0134581577333475
sI400
F0.11757537937271588
sI1300
F0.02278583355626201
sI1050
F0.0769478535400831
sI800
F0.04998960533449161
sI550
F0.014824216123852589
sI1450
F0.011935614264997922
sI300
F0.0
sI1200
F0.035122219295718585
sI950
F0.13231438965517708
sI700
F0.003681036297269383
sI450
F0.06429829188110274
sI1350
F0.016309659423196676
sI200
F0.0
sI1100
F0.05541718766606371
sI850
F0.11321443963897532
sI600
F0.042526499067232694
sI1500
F0.007626349471329579
sI350
F0.0
sI1250
F0.032695484940474084
sI1000
F0.10291797831495936
sI750
F0.005881736029646058
sI500
F0.02931680833978205
sI1400
F0.013749107432287789
sI250
F0.0
sI1150
F0.04720834605657709
ssI950
(dp11
I900
F0.17724252909856933
sI650
F0.07116946305940712
sI400
F0.11213516308852495
sI1300
F0.02490178183693591
sI1050
F0.08264173819254497
sI800
F0.28241897995905196
sI550
F0.01954190124819476
sI1450
F0.012128350447400904
sI300
F0.2782504833836543
sI1200
F0.04089651376039928
sI950
F0.14716741322361923
sI700
F0.29058379747738694
sI450
F0.11084210642996636
sI1350
F0.01658280066932233
sI200
F0.0
sI1100
F0.06265992131949907
sI850
F0.21711193840612958
sI600
F0.024209520096728342
sI1500
F0.009841525258827914
sI350
F0.0
sI1250
F0.026140427391333758
sI1000
F0.10519211350347829
sI750
F0.3134245192781712
sI500
F0.05237016375344797
sI1400
F0.015036900323141388
sI250
F0.0
sI1150
F0.04790971701858107
ssI700
(dp12
I900
F0.20075481517810428
sI650
F0.8103255513787766
sI400
F0.06555460632182758
sI1300
F0.023437054751424435
sI1050
F0.0863086580161773
sI800
F0.3702440249403878
sI550
F0.9704510697970522
sI1450
F0.01254164443865919
sI300
F0.0
sI1200
F0.03881825099715466
sI950
F0.15904863397692637
sI700
F0.6339627039990426
sI450
F0.04249273145611345
sI1350
F0.021019613616831065
sI200
F0.0
sI1100
F0.07117117970668436
sI850
F0.2792967003473779
sI600
F1.052411708545356
sI1500
F0.008886377960838385
sI350
F0.30146688994099147
sI1250
F0.029144404434436885
sI1000
F0.0982002431792648
sI750
F0.5150981052137511
sI500
F0.1368386617721039
sI1400
F0.014782401042858807
sI250
F0.0
sI1150
F0.04658129521463686
ssI450
(dp13
I900
F0.2240399204826951
sI650
F1.2068156795676295
sI400
F4.224167985005489
sI1300
F0.026505914291845237
sI1050
F0.09423741914153667
sI800
F0.43608819485231826
sI550
F2.4462966906941412
sI1450
F0.012671601577011672
sI300
F0.0
sI1200
F0.03831001106824699
sI950
F0.16147052012523408
sI700
F0.738681593985455
sI450
F5.071473827524852
sI1350
F0.018216263323488174
sI200
F0.0
sI1100
F0.0682617341607797
sI850
F0.3218235970468298
sI600
F1.661974177388271
sI1500
F0.010444225864344578
sI350
F0.174925928182683
sI1250
F0.033567148904887864
sI1000
F0.12149837391661411
sI750
F0.5455461689361356
sI500
F3.6350697149625275
sI1400
F0.01595513735579978
sI250
F0.0
sI1150
F0.04961309879403815
ssI1350
(dp14
I900
F0.03488808866118226
sI650
F0.00662031972899453
sI400
F0.12201781561018193
sI1300
F0.0219630535965013
sI1050
F0.07008917519704302
sI800
F0.008814379848316631
sI550
F0.03119347823846854
sI1450
F0.01137155528288612
sI300
F0.27379797112334037
sI1200
F0.036173603509332374
sI950
F0.07311714061473255
sI700
F0.013490190944380344
sI450
F0.056969715991021984
sI1350
F0.017546990957040574
sI200
F0.0
sI1100
F0.05738995011077765
sI850
F0.00551964805832655
sI600
F0.01007149144257994
sI1500
F0.008610786342548941
sI350
F0.10710829243194357
sI1250
F0.024825194074428448
sI1000
F0.07269467563585265
sI750
F0.0035043389610422727
sI500
F0.021914351348457442
sI1400
F0.012772893679422574
sI250
F0.0
sI1150
F0.04696665876812198
ssI200
(dp15
I900
F0.22076787104517603
sI650
F1.0856142962340243
sI400
F11.503989464432436
sI1300
F0.02539814933634585
sI1050
F0.08348029233719084
sI800
F0.34895538625916184
sI550
F2.536191063817092
sI1450
F0.012078645080124762
sI300
F33.0834113966222
sI1200
F0.03958426693463161
sI950
F0.18145172623422348
sI700
F0.7291952793751802
sI450
F5.664586374786636
sI1350
F0.02028319864306556
sI200
F0.0
sI1100
F0.0628784429962697
sI850
F0.292846934050555
sI600
F1.4706052825299045
sI1500
F0.00963433303123502
sI350
F20.09518589014572
sI1250
F0.03199385598477504
sI1000
F0.11341661478863095
sI750
F0.5429166728491541
sI500
F3.664499753727892
sI1400
F0.016188829672893312
sI250
F40.978990006653156
sI1150
F0.05040639468564823
ssI1100
(dp16
I900
F0.15596893340990342
sI650
F0.022295315190008914
sI400
F0.2618853378191383
sI1300
F0.024791786858136725
sI1050
F0.07491306668997581
sI800
F0.19884871157957368
sI550
F0.017116757384586696
sI1450
F0.01276447288427116
sI300
F0.0
sI1200
F0.03331987704659125
sI950
F0.13561700765186216
sI700
F0.014691632015784972
sI450
F0.06377840537481551
sI1350
F0.018595525355677173
sI200
F0.0
sI1100
F0.06881541529515085
sI850
F0.1907110283079872
sI600
F0.022337605096236834
sI1500
F0.008586801887950354
sI350
F0.09060863801245173
sI1250
F0.02913862900790917
sI1000
F0.083414028327388
sI750
F0.06949204903793708
sI500
F0.020153781620801666
sI1400
F0.013829955444019753
sI250
F0.0
sI1150
F0.04459299212146143
ssI850
(dp17
I900
F0.19848357786642645
sI650
F0.4453746415756434
sI400
F0.08489838552987015
sI1300
F0.022322562413855444
sI1050
F0.08972455749307642
sI800
F0.3684539714429589
sI550
F0.0
sI1450
F0.011689722741687825
sI300
F0.0
sI1200
F0.04095384595946596
sI950
F0.13964897928297726
sI700
F0.37516792000246
sI450
F0.0516606018321697
sI1350
F0.018020551115540198
sI200
F0.0
sI1100
F0.05979332583912561
sI850
F0.23852982974902942
sI600
F0.27267366945421967
sI1500
F0.010292429655430382
sI350
F0.0
sI1250
F0.03358547475812052
sI1000
F0.11808054169948275
sI750
F0.4914047525332333
sI500
F0.05991256736813042
sI1400
F0.01324357927974034
sI250
F0.0
sI1150
F0.04426468658987333
ssI600
(dp18
I900
F0.19181151169327182
sI650
F1.00235283907909
sI400
F0.10969639746148957
sI1300
F0.025439793077098746
sI1050
F0.0891199348119808
sI800
F0.3506032438622287
sI550
F1.7594904280463886
sI1450
F0.011677535757515402
sI300
F0.0
sI1200
F0.03606551825112923
sI950
F0.17025017234118306
sI700
F0.7192238231446882
sI450
F0.4013973565165162
sI1350
F0.02115581517917259
sI200
F0.0
sI1100
F0.06843637307439443
sI850
F0.27759720954257283
sI600
F1.3742968515635337
sI1500
F0.009102307184804453
sI350
F0.17696595279747107
sI1250
F0.030142869765397106
sI1000
F0.11612066516232131
sI750
F0.5242722237491068
sI500
F1.4928347049937962
sI1400
F0.01636165150155303
sI250
F0.0
sI1150
F0.04987941662156041
ssI1500
(dp19
I900
F0.0012095704524667872
sI650
F0.007483470310424485
sI400
F0.26054979164100583
sI1300
F0.022504542817219697
sI1050
F0.038629881890330245
sI800
F0.0019406721499386221
sI550
F0.05322707898057158
sI1450
F0.01034833520118617
sI300
F0.0
sI1200
F0.029178170199977243
sI950
F0.0025074694861612966
sI700
F0.010533842737445676
sI450
F0.03696279812328167
sI1350
F0.017877659373480737
sI200
F0.0
sI1100
F0.046358640874938434
sI850
F0.0030882666711679694
sI600
F0.008869572554569171
sI1500
F0.00809742164053182
sI350
F0.09285292605665733
sI1250
F0.023714972240526634
sI1000
F0.025998558054210856
sI750
F0.007455318851137636
sI500
F0.040444244501520975
sI1400
F0.012839508032006543
sI250
F0.0
sI1150
F0.042258772122851083
ssI350
(dp20
I900
F0.21443515166352806
sI650
F1.074050744398254
sI400
F10.153112674139729
sI1300
F0.027558522611765342
sI1050
F0.09332713324797025
sI800
F0.42096600096557757
sI550
F2.5722251711245345
sI1450
F0.012236239436900876
sI300
F0.2743835458646576
sI1200
F0.04370341308287091
sI950
F0.1709828552067317
sI700
F0.7426810896505822
sI450
F6.320271829543059
sI1350
F0.019905232795199505
sI200
F0.0
sI1100
F0.07221518488405325
sI850
F0.3017872689849665
sI600
F1.611354142354702
sI1500
F0.010644168813137324
sI350
F10.194848131270868
sI1250
F0.03232906590874976
sI1000
F0.1142003495987905
sI750
F0.5944069732213536
sI500
F3.7600206455795075
sI1400
F0.015602256060422183
sI250
F0.0
sI1150
F0.04932610850917886
ssI1250
(dp21
I900
F0.08815781655739377
sI650
F0.025868004703352307
sI400
F0.07804549379101956
sI1300
F0.024291573438005983
sI1050
F0.07231180673473259
sI800
F0.0068730436467633335
sI550
F0.01594055845940555
sI1450
F0.010283404418415918
sI300
F0.22766489716500446
sI1200
F0.030745628885844856
sI950
F0.09317003295862504
sI700
F0.010734834168656133
sI450
F0.09143935407223948
sI1350
F0.018711962908054255
sI200
F0.0
sI1100
F0.06404917469335762
sI850
F0.05971577682707548
sI600
F0.01089720634502906
sI1500
F0.008315736311952693
sI350
F0.11954691211051292
sI1250
F0.02697387846360886
sI1000
F0.0861446592741405
sI750
F0.00609350099600282
sI500
F0.021470970589671342
sI1400
F0.012520809355270324
sI250
F0.0
sI1150
F0.041512073004141274
ssI1000
(dp22
I900
F0.20458577066756742
sI650
F0.006239977815134329
sI400
F0.10564827414414743
sI1300
F0.024916124280341945
sI1050
F0.07424982266917574
sI800
F0.290722558711713
sI550
F0.018315301114973218
sI1450
F0.01165919142966346
sI300
F0.0
sI1200
F0.0322694365000446
sI950
F0.1432703893510548
sI700
F0.1631716688872581
sI450
F0.15616067714773188
sI1350
F0.01951130322960069
sI200
F0.0
sI1100
F0.060960199210393536
sI850
F0.2369370785869964
sI600
F0.010383817254781906
sI1500
F0.010196605033480043
sI350
F0.08205398958790758
sI1250
F0.033200223424165544
sI1000
F0.10073024534012409
sI750
F0.32774841264207827
sI500
F0.009936853198907188
sI1400
F0.01386979133943555
sI250
F0.0
sI1150
F0.04964883458106999
ssI750
(dp23
I900
F0.18975262093125875
sI650
F0.8359178753913192
sI400
F0.04279688412058838
sI1300
F0.024943297541883947
sI1050
F0.08093773005228698
sI800
F0.3712430779666848
sI550
F0.3935420645019617
sI1450
F0.011894854119621611
sI300
F0.24676703413939155
sI1200
F0.034625519214921616
sI950
F0.14947354363204962
sI700
F0.5977538877434485
sI450
F0.10999422795963348
sI1350
F0.017936952544092995
sI200
F0.0
sI1100
F0.06141565954940649
sI850
F0.2683912571197907
sI600
F0.9298700931177987
sI1500
F0.009360600008466629
sI350
F0.15725994721708964
sI1250
F0.028138124117961124
sI1000
F0.10689299935995047
sI750
F0.46787101611460763
sI500
F0.050489376283105666
sI1400
F0.014459562999501421
sI250
F0.0
sI1150
F0.051276184603853574
ssI500
(dp24
I900
F0.2279722879269407
sI650
F1.0257559698402297
sI400
F0.8275565290570863
sI1300
F0.024265686777983225
sI1050
F0.09001711475731129
sI800
F0.41714842713189987
sI550
F2.2245068951781084
sI1450
F0.013090413323874603
sI300
F0.24285972930246028
sI1200
F0.036708441308930646
sI950
F0.1678500878843647
sI700
F0.7333661762431126
sI450
F3.3828127569205226
sI1350
F0.02105725844708661
sI200
F0.0
sI1100
F0.07196923354232829
sI850
F0.2570926058824283
sI600
F1.4648201823194078
sI1500
F0.009411122443321894
sI350
F0.0
sI1250
F0.032489854672641746
sI1000
F0.11507928843419515
sI750
F0.5219785374086778
sI500
F2.852463429264658
sI1400
F0.013882162565886041
sI250
F0.0
sI1150
F0.05364663451346848
ssI1400
(dp25
I900
F0.007069755337863443
sI650
F0.0242071110688421
sI400
F0.18825266057568046
sI1300
F0.020232877842011915
sI1050
F0.06499331117366078
sI800
F0.001936549544415435
sI550
F0.04880023308212813
sI1450
F0.010867597420709245
sI300
F0.0
sI1200
F0.03200765382778503
sI950
F0.04407717930032447
sI700
F0.0
sI450
F0.050282883236347865
sI1350
F0.015513242567060664
sI200
F0.0
sI1100
F0.0638456222792697
sI850
F0.0
sI600
F0.020870965857838087
sI1500
F0.00868807281501062
sI350
F0.08923249159879569
sI1250
F0.02549181695908049
sI1000
F0.062083337889869264
sI750
F0.012204567676573918
sI500
F0.06356693094764158
sI1400
F0.011699672565864037
sI250
F0.0
sI1150
F0.03740104669465198
ssI250
(dp26
I900
F0.2151728519668928
sI650
F1.1256513718668795
sI400
F9.963288248262817
sI1300
F0.026864772116229042
sI1050
F0.09685333094218242
sI800
F0.40061570659647816
sI550
F2.541799368670433
sI1450
F0.012293761165589868
sI300
F23.260240725039704
sI1200
F0.0387334371359802
sI950
F0.15483935536908436
sI700
F0.6426153493783908
sI450
F6.2725003759627445
sI1350
F0.021400071484725936
sI200
F0.0
sI1100
F0.0715710793136201
sI850
F0.26919754998327566
sI600
F1.5092991971665155
sI1500
F0.009326883918551099
sI350
F15.418914171331899
sI1250
F0.03205843295821905
sI1000
F0.11979060408632333
sI750
F0.5546223640971619
sI500
F3.5182177048910552
sI1400
F0.013794593814609148
sI250
F1.2126667333005419
sI1150
F0.05377267586407215
ssI1150
(dp27
I900
F0.1449421012576459
sI650
F0.005916640205257559
sI400
F0.1143301107728119
sI1300
F0.021094983366349743
sI1050
F0.07298877193252651
sI800
F0.09058709991005925
sI550
F0.031546902627000314
sI1450
F0.012028864010600016
sI300
F0.0
sI1200
F0.03361491182968704
sI950
F0.11692067753085068
sI700
F0.0
sI450
F0.018422060162849734
sI1350
F0.021630451956478683
sI200
F0.0
sI1100
F0.07228137323390281
sI850
F0.142039053378384
sI600
F0.0
sI1500
F0.008809842149833241
sI350
F0.09519362955160418
sI1250
F0.024701375026945315
sI1000
F0.0856162779610481
sI750
F0.010325971557793185
sI500
F0.021447587653394277
sI1400
F0.014063598261408006
sI250
F0.0
sI1150
F0.04709252662072518
ss.