(dp0
I900
(dp1
I2050
F0.006011286175503895
sI1800
F0.010378394924772948
sI1550
F0.01763789717180902
sI2450
F0.0025205519125238514
sI1300
F0.03132889360341433
sI2200
F0.004003921964757653
sI1050
F0.04990914139936555
sI1950
F0.007975430639360357
sI1700
F0.012928721383370383
sI1450
F0.02231014655411367
sI2350
F0.002970918216909693
sI1200
F0.039547591824375235
sI2100
F0.005927742194930646
sI1850
F0.009251520803312792
sI1600
F0.015886761092953984
sI2500
F0.00235414274234996
sI1350
F0.028175528873599497
sI2250
F0.004312340964046792
sI1100
F0.04875266880181442
sI2000
F0.006357529308748901
sI1750
F0.011835985305120424
sI1500
F0.019897511141338323
sI2400
F0.00256588823078111
sI1250
F0.03484817483986205
sI2150
F0.0049520032758135265
sI1000
F0.060625850152048605
sI1900
F0.007721723730766597
sI1650
F0.013747401110878892
sI1400
F0.024510141291872976
sI2300
F0.003627436067546523
sI1150
F0.04485784511585344
ssI650
(dp2
I2050
F0.009458263705064404
sI1800
F0.0203231539528395
sI1550
F0.03237957316299294
sI2450
F0.004761104411909432
sI1300
F0.06618199118976573
sI2200
F0.008228578623635524
sI1050
F0.11358273842716865
sI1950
F0.01220562175257497
sI1700
F0.026917801421769968
sI1450
F0.041920062645814576
sI2350
F0.005237913080328275
sI1200
F0.0655235742903495
sI2100
F0.010007060536492769
sI1850
F0.017351329002203937
sI1600
F0.026730903925973423
sI2500
F0.003771216715599568
sI1350
F0.051047400631440365
sI2250
F0.006513273176123299
sI1100
F0.10281857713149989
sI2000
F0.012274888161567995
sI1750
F0.019282038883065594
sI1500
F0.03970541023340048
sI2400
F0.004792216898249584
sI1250
F0.06817762930214673
sI2150
F0.008646457169251392
sI1000
F0.15852405600217545
sI1900
F0.014644433563617658
sI1650
F0.027408746707896232
sI1400
F0.043775816828440596
sI2300
F0.0066892051837897796
sI1150
F0.08841272927724625
ssI400
(dp3
I2050
F0.020892276565617714
sI1800
F0.034335894983532164
sI1550
F0.059893516577644516
sI2450
F0.007378324588532862
sI1300
F0.12409997327669159
sI2200
F0.014075684720112256
sI1050
F0.287700754605785
sI1950
F0.024834220418218155
sI1700
F0.05059127085675737
sI1450
F0.07930788925996708
sI2350
F0.010146038746309583
sI1200
F0.17573377683525646
sI2100
F0.01847205692504818
sI1850
F0.03311007916531682
sI1600
F0.05832863604404448
sI2500
F0.007063364275262727
sI1350
F0.11009170673241062
sI2250
F0.013280192472775903
sI1100
F0.21649076774504572
sI2000
F0.02148128749828165
sI1750
F0.0409530025671479
sI1500
F0.07093823585007564
sI2400
F0.009113456394061192
sI1250
F0.1439409383168993
sI2150
F0.015649322749402877
sI1000
F0.3223394224642481
sI1900
F0.026526966509718898
sI1650
F0.051046538445891285
sI1400
F0.08710675768808249
sI2300
F0.010547634603021305
sI1150
F0.18874814080299504
ssI1300
(dp4
I2050
F0.0027170961434048306
sI1800
F0.004459938010811868
sI1550
F0.007400415356092449
sI2450
F0.001040154018359653
sI1300
F0.011683031363330574
sI2200
F0.0016170210279678066
sI1050
F0.02088155661775133
sI1950
F0.003610361346500973
sI1700
F0.005622676401047792
sI1450
F0.009071858064181829
sI2350
F0.0013043526873314738
sI1200
F0.015516585736060611
sI2100
F0.0020103419104622543
sI1850
F0.003929534465777525
sI1600
F0.006531096664666173
sI2500
F0.0009250894334792064
sI1350
F0.010882089598137006
sI2250
F0.0014298568737623584
sI1100
F0.018789483197778494
sI2000
F0.002716402421418201
sI1750
F0.003993733582024696
sI1500
F0.008443821957883218
sI2400
F0.0012243464216159774
sI1250
F0.012686286782405359
sI2150
F0.001771841370321217
sI1000
F0.025288658907706717
sI1900
F0.0030311376644913163
sI1650
F0.005366432169270299
sI1400
F0.010137250063332744
sI2300
F0.0014354360131978718
sI1150
F0.014580146165305629
ssI150
(dp5
I2050
F0.032251514758153674
sI1800
F0.06698487074670036
sI1550
F0.12550429429245336
sI2450
F0.012895523599900295
sI1300
F0.257915300578924
sI2200
F0.02266888858645263
sI1050
F0.5691815192560309
sI1950
F0.041309350011160845
sI1700
F0.08354444065704154
sI1450
F0.17471786076733722
sI2350
F0.017320503393947945
sI1200
F0.33873077597949847
sI2100
F0.030927441033324062
sI1850
F0.05743919661192201
sI1600
F0.1033891260221319
sI2500
F0.011874797819439944
sI1350
F0.220127567491663
sI2250
F0.01967929368063399
sI1100
F0.4260820005268445
sI2000
F0.03876536387490832
sI1750
F0.06461513677193147
sI1500
F0.14528564775422728
sI2400
F0.0167418951064927
sI1250
F0.31177329866583564
sI2150
F0.029483938370254002
sI1000
F0.6673000656615926
sI1900
F0.04736218419201359
sI1650
F0.09435356269639611
sI1400
F0.20801559133147773
sI2300
F0.020421955957343852
sI1150
F0.37353105878601217
ssI1050
(dp6
I2050
F0.003873450871450844
sI1800
F0.00750711961958412
sI1550
F0.013473790945238014
sI2450
F0.0018507588687402463
sI1300
F0.024208091815892313
sI2200
F0.0031916401066156893
sI1050
F0.04181535822881313
sI1950
F0.00531664353780586
sI1700
F0.008595282922433868
sI1450
F0.013194580382083189
sI2350
F0.002185662937222492
sI1200
F0.029656601167171094
sI2100
F0.003820523700593786
sI1850
F0.0071853162218056136
sI1600
F0.011334070067853
sI2500
F0.0015447573236888634
sI1350
F0.023166371203221677
sI2250
F0.002816315375557427
sI1100
F0.03678094861119911
sI2000
F0.004719151734211728
sI1750
F0.00884353594467804
sI1500
F0.014139629729454515
sI2400
F0.0020538933287245773
sI1250
F0.024301702832648823
sI2150
F0.003380160938094984
sI1000
F0.04267363515551445
sI1900
F0.005919095534575914
sI1650
F0.01173731398122735
sI1400
F0.0177466213050332
sI2300
F0.0024873294416908336
sI1150
F0.032422459805656466
ssI800
(dp7
I2050
F0.008208374474392974
sI1800
F0.013720502941366447
sI1550
F0.02459436226142796
sI2450
F0.0029101576510106647
sI1300
F0.04104221112787252
sI2200
F0.0049597582844021545
sI1050
F0.07524917719629819
sI1950
F0.010302354675632269
sI1700
F0.014720999182822235
sI1450
F0.03152136984262426
sI2350
F0.003991932686034934
sI1200
F0.06123110737577844
sI2100
F0.007099912725333769
sI1850
F0.010330334427799464
sI1600
F0.019782936437201543
sI2500
F0.0030224136134253555
sI1350
F0.037236280089617435
sI2250
F0.00481740890540035
sI1100
F0.05781762478294795
sI2000
F0.00778553909042996
sI1750
F0.01192376601460188
sI1500
F0.025169485923322566
sI2400
F0.003584025807191183
sI1250
F0.04381033911198682
sI2150
F0.006018877822556818
sI1000
F0.08432989148680947
sI1900
F0.010724894536675833
sI1650
F0.020057566234090766
sI1400
F0.03540205146050258
sI2300
F0.004512173010496938
sI1150
F0.06992465969808963
ssI550
(dp8
I2050
F0.012802429219471672
sI1800
F0.02376451596154927
sI1550
F0.044228541788859876
sI2450
F0.005762566090053596
sI1300
F0.0806666403748975
sI2200
F0.00897540371511869
sI1050
F0.16172248997413083
sI1950
F0.017796295409794688
sI1700
F0.03157958638401691
sI1450
F0.05175116116563296
sI2350
F0.00671770218690195
sI1200
F0.10684209408676304
sI2100
F0.011224828805117682
sI1850
F0.02142408215424896
sI1600
F0.0399208822317701
sI2500
F0.004715468229688088
sI1350
F0.06994376081690815
sI2250
F0.00874233675124482
sI1100
F0.1626929278045488
sI2000
F0.015128497601486528
sI1750
F0.027873782450363326
sI1500
F0.04611985232407054
sI2400
F0.0060229282619518746
sI1250
F0.09696806329352171
sI2150
F0.010853879699046783
sI1000
F0.18864107585724624
sI1900
F0.02107432803120328
sI1650
F0.03284154985317912
sI1400
F0.07161647813966454
sI2300
F0.00816310234989979
sI1150
F0.12210943409267974
ssI1450
(dp9
I2050
F0.0019055190382333879
sI1800
F0.0030211576793857937
sI1550
F0.004546754128455208
sI2450
F0.0007531851404662094
sI1300
F0.008724468040636793
sI2200
F0.0011863032748462097
sI1050
F0.01746038567574895
sI1950
F0.0020710384199826865
sI1700
F0.003757555540338424
sI1450
F0.00630011317428679
sI2350
F0.0009657512086919764
sI1200
F0.010727584224478958
sI2100
F0.0015375746607579743
sI1850
F0.0029036712337042496
sI1600
F0.004506928656761174
sI2500
F0.0006618310716922164
sI1350
F0.007147613875005984
sI2250
F0.0012590918561229127
sI1100
F0.010580989564546985
sI2000
F0.0019831720141520884
sI1750
F0.0031670301932667207
sI1500
F0.005333769431076219
sI2400
F0.0007761759180076444
sI1250
F0.009940407334483833
sI2150
F0.0016376885033397993
sI1000
F0.01816353646347921
sI1900
F0.0025001235684064356
sI1650
F0.004384029403106028
sI1400
F0.006241345275392452
sI2300
F0.0010485528533231176
sI1150
F0.011389182795819169
ssI300
(dp10
I2050
F0.02393610889372677
sI1800
F0.04703531580254014
sI1550
F0.08693574996029783
sI2450
F0.010515234967086597
sI1300
F0.18135830893385388
sI2200
F0.016896334403257014
sI1050
F0.35056362221264176
sI1950
F0.029936571877009467
sI1700
F0.06165013290739263
sI1450
F0.10923858072629794
sI2350
F0.012697622587610178
sI1200
F0.21971865115589753
sI2100
F0.02432708447441345
sI1850
F0.04069111940004822
sI1600
F0.07417797838524115
sI2500
F0.008678129154548542
sI1350
F0.14810587184232682
sI2250
F0.01664402323171671
sI1100
F0.3044130771747
sI2000
F0.026702552403344026
sI1750
F0.05279116700771254
sI1500
F0.10168499326433254
sI2400
F0.010326770412382214
sI1250
F0.18512351034888958
sI2150
F0.01989240147260721
sI1000
F0.42396203023485785
sI1900
F0.03465493833316599
sI1650
F0.0643530626171506
sI1400
F0.1269002732270081
sI2300
F0.01445788356888164
sI1150
F0.27469816739102737
ssI1200
(dp11
I2050
F0.003054178362143922
sI1800
F0.005406330101110893
sI1550
F0.009224828790289652
sI2450
F0.0014118875111785968
sI1300
F0.015514287009188837
sI2200
F0.0023939822222846263
sI1050
F0.029850682036287456
sI1950
F0.0036386719463997325
sI1700
F0.006295650759425576
sI1450
F0.010680474955412406
sI2350
F0.0016032992153305085
sI1200
F0.020059518619383244
sI2100
F0.0031268465594685995
sI1850
F0.004263114967388268
sI1600
F0.0077632487709405305
sI2500
F0.0010906022795375196
sI1350
F0.015637124014762988
sI2250
F0.0019089015073323232
sI1100
F0.023942238916879157
sI2000
F0.0031305965095689285
sI1750
F0.005958448009591972
sI1500
F0.009471313021034503
sI2400
F0.0014338684842975765
sI1250
F0.01639325877746037
sI2150
F0.00218595844920698
sI1000
F0.03497246639776177
sI1900
F0.004102962678192551
sI1650
F0.007491020076883353
sI1400
F0.011780651155637069
sI2300
F0.0018790791114436005
sI1150
F0.02337358439378443
ssI50
(dp12
I2050
F5.934009149207314e-07
sI1800
F1.6275589941263115e-06
sI1550
F4.238448450651089e-06
sI2450
F1.1809219174045284e-07
sI1300
F1.2495327366446622e-05
sI2200
F3.190284083818694e-07
sI1050
F3.0182242145440848e-05
sI1950
F8.931106196850737e-07
sI1700
F2.525251624776149e-06
sI1450
F6.126630192756877e-06
sI2350
F1.5350588477304772e-07
sI1200
F1.659186691576523e-05
sI2100
F4.936405792771389e-07
sI1850
F1.3141851039594985e-06
sI1600
F3.5262758395584346e-06
sI2500
F9.205960827998037e-08
sI1350
F1.0453974941071217e-05
sI2250
F2.508445839366186e-07
sI1100
F2.3038631245416878e-05
sI2000
F6.68048809512176e-07
sI1750
F1.8961517176340095e-06
sI1500
F5.021623229615395e-06
sI2400
F1.3014000395364383e-07
sI1250
F1.3787241612760357e-05
sI2150
F3.8647477431321404e-07
sI1000
F3.9952294549894376e-05
sI1900
F1.066100611266697e-06
sI1650
F2.72407195430769e-06
sI1400
F7.966518831397718e-06
sI2300
F2.219032292600684e-07
sI1150
F2.244248099449212e-05
ssI950
(dp13
I2050
F0.004812076985554569
sI1800
F0.008904510191100182
sI1550
F0.01646473712601142
sI2450
F0.0020700702555713317
sI1300
F0.031723246773057164
sI2200
F0.003886506638378434
sI1050
F0.05640853682390473
sI1950
F0.005663495138973411
sI1700
F0.011104886519197145
sI1450
F0.022102074341687178
sI2350
F0.0026842524585548363
sI1200
F0.036109131407726106
sI2100
F0.004226481928550653
sI1850
F0.008182639731308927
sI1600
F0.01298255504962683
sI2500
F0.0018298334595164792
sI1350
F0.028048514121757483
sI2250
F0.0032892663271468715
sI1100
F0.0483104284540277
sI2000
F0.006008742931442826
sI1750
F0.009931546752724032
sI1500
F0.017564700536450498
sI2400
F0.0022624489752965386
sI1250
F0.03136660547520246
sI2150
F0.004226649142389387
sI1000
F0.06768069078616655
sI1900
F0.007561188379104416
sI1650
F0.01321064151740975
sI1400
F0.02608164560845158
sI2300
F0.0028612725524087158
sI1150
F0.03652223411686092
ssI700
(dp14
I2050
F0.010034803284617809
sI1800
F0.014932540090347448
sI1550
F0.03251277353242501
sI2450
F0.004125698903911669
sI1300
F0.0497508339542334
sI2200
F0.006396417896145543
sI1050
F0.12001204735849172
sI1950
F0.012652165003582532
sI1700
F0.019949904526188653
sI1450
F0.03392123599059415
sI2350
F0.004575405438026467
sI1200
F0.06590692805614137
sI2100
F0.00806909518541817
sI1850
F0.01373721672837212
sI1600
F0.028199160603234193
sI2500
F0.00367057860938583
sI1350
F0.048268805699163975
sI2250
F0.005963418019621141
sI1100
F0.08058316832814526
sI2000
F0.010445309577910768
sI1750
F0.019084788091067235
sI1500
F0.032397202719983205
sI2400
F0.004474047707113392
sI1250
F0.06786644370688209
sI2150
F0.007971991652058906
sI1000
F0.1384693335974852
sI1900
F0.013987914563397135
sI1650
F0.02374893509568535
sI1400
F0.04260458485815529
sI2300
F0.0060061326521426706
sI1150
F0.06452169530820231
ssI450
(dp15
I2050
F0.017534264879823843
sI1800
F0.027761765641449207
sI1550
F0.058983450568148174
sI2450
F0.006831500975885595
sI1300
F0.11224961630277484
sI2200
F0.011709899539817712
sI1050
F0.23715321131986117
sI1950
F0.021929499750186515
sI1700
F0.03951826811256245
sI1450
F0.07753517502978101
sI2350
F0.008879502923683502
sI1200
F0.1486139378768448
sI2100
F0.01578787657199303
sI1850
F0.027505871274972896
sI1600
F0.052313843994506726
sI2500
F0.006467231633674032
sI1350
F0.09555678438946219
sI2250
F0.011005704663845716
sI1100
F0.2030711229629895
sI2000
F0.01935043902698993
sI1750
F0.0377668328165568
sI1500
F0.06752177078967986
sI2400
F0.007571259464277525
sI1250
F0.12542574481096738
sI2150
F0.013252460032411545
sI1000
F0.2762974993570185
sI1900
F0.025751495885426304
sI1650
F0.04573362552516244
sI1400
F0.0830445676764103
sI2300
F0.00900498355673015
sI1150
F0.15543417548429564
ssI1350
(dp16
I2050
F0.0022969698749398387
sI1800
F0.004064694569397182
sI1550
F0.007196942639542544
sI2450
F0.0009325884296955952
sI1300
F0.012380789077722675
sI2200
F0.0016320402523271429
sI1050
F0.018982900620057513
sI1950
F0.0027499737065289137
sI1700
F0.004293797799279016
sI1450
F0.008033057194401583
sI2350
F0.0011139497481989045
sI1200
F0.012686607244711288
sI2100
F0.0017791724367706284
sI1850
F0.0034006606042294367
sI1600
F0.005658416204788569
sI2500
F0.000861425080709716
sI1350
F0.008410637867235544
sI2250
F0.001462944618730744
sI1100
F0.017520115782126144
sI2000
F0.0025039760358542425
sI1750
F0.0038167591815259673
sI1500
F0.006808733803994449
sI2400
F0.0011803065980806183
sI1250
F0.012932646522213286
sI2150
F0.001862392996850106
sI1000
F0.01727943599162357
sI1900
F0.0027895632033055075
sI1650
F0.0052809739517826046
sI1400
F0.008342508400577117
sI2300
F0.0012374361285098865
sI1150
F0.014399370902659909
ssI200
(dp17
I2050
F0.0280555628506483
sI1800
F0.0541264553065547
sI1550
F0.10563606563442213
sI2450
F0.012167841444972455
sI1300
F0.23253384196187177
sI2200
F0.02065993689465443
sI1050
F0.42336972066911377
sI1950
F0.04129907123126406
sI1700
F0.07052710008700591
sI1450
F0.13735827498162126
sI2350
F0.014509082399722102
sI1200
F0.2912344476277602
sI2100
F0.027650770032140295
sI1850
F0.04902932135322068
sI1600
F0.09379177009681884
sI2500
F0.010451905400502646
sI1350
F0.18684181302934078
sI2250
F0.02040639003657908
sI1100
F0.3852942951847226
sI2000
F0.032151113504824594
sI1750
F0.0686076683538359
sI1500
F0.11343577384983713
sI2400
F0.012561215813906563
sI1250
F0.25725617028675973
sI2150
F0.021957056908512594
sI1000
F0.5332531746907956
sI1900
F0.040720671571688315
sI1650
F0.08893654371179963
sI1400
F0.1694374450861406
sI2300
F0.01708906657169705
sI1150
F0.348430615364126
ssI1100
(dp18
I2050
F0.003870981955264863
sI1800
F0.006975705147614932
sI1550
F0.01097046120437318
sI2450
F0.0015145460161065996
sI1300
F0.020720976125077003
sI2200
F0.0022769943373223225
sI1050
F0.03412726417176949
sI1950
F0.0041819670502190875
sI1700
F0.008261785563869058
sI1450
F0.014352620921195807
sI2350
F0.0022423025915603825
sI1200
F0.023446142876647716
sI2100
F0.0033263543440050416
sI1850
F0.005642895243806113
sI1600
F0.010594521833186966
sI2500
F0.0015465462900921935
sI1350
F0.015712424272120898
sI2250
F0.002473298308939864
sI1100
F0.034011110230343124
sI2000
F0.005131610471781842
sI1750
F0.007333034180688412
sI1500
F0.012798337756644804
sI2400
F0.0018824401673002795
sI1250
F0.020941226957464688
sI2150
F0.0029598425782645034
sI1000
F0.03548772019066779
sI1900
F0.0045350786954492074
sI1650
F0.009203562531784228
sI1400
F0.016873406208842538
sI2300
F0.002301182119546727
sI1150
F0.02404023101297254
ssI850
(dp19
I2050
F0.006058297523651925
sI1800
F0.011916884879555974
sI1550
F0.01787484179256912
sI2450
F0.0026868191818542712
sI1300
F0.028472603574251153
sI2200
F0.004600930619109916
sI1050
F0.07299542195005798
sI1950
F0.009086053972476795
sI1700
F0.016016045454664677
sI1450
F0.029536463637253815
sI2350
F0.003325698017349876
sI1200
F0.04361947705971586
sI2100
F0.0061690093211957744
sI1850
F0.009473456058652869
sI1600
F0.017739707027396287
sI2500
F0.0023774122868151066
sI1350
F0.03379428000092778
sI2250
F0.004293689728306336
sI1100
F0.06393983404022265
sI2000
F0.007985661267365586
sI1750
F0.012756485437549439
sI1500
F0.0216810571837024
sI2400
F0.003135334732779897
sI1250
F0.044635744135263715
sI2150
F0.005600593396221668
sI1000
F0.08197891279063846
sI1900
F0.009439728002460717
sI1650
F0.018719231880416864
sI1400
F0.02772111210535335
sI2300
F0.003614485174407963
sI1150
F0.05691657616061357
ssI600
(dp20
I2050
F0.011977013112973119
sI1800
F0.021778810628628055
sI1550
F0.037217298054187276
sI2450
F0.004699607797543979
sI1300
F0.07847107015302397
sI2200
F0.008897134728263995
sI1050
F0.1343006596726343
sI1950
F0.014072941408508404
sI1700
F0.02686484969859348
sI1450
F0.048323418430992866
sI2350
F0.006257310582507415
sI1200
F0.08306176963837407
sI2100
F0.010810835637889198
sI1850
F0.018182505579562296
sI1600
F0.03313451797218493
sI2500
F0.004272628353095718
sI1350
F0.0658514213006153
sI2250
F0.007835564723265732
sI1100
F0.12588626231587158
sI2000
F0.012617884319093851
sI1750
F0.02229409856669049
sI1500
F0.043704918119933975
sI2400
F0.005862708105917179
sI1250
F0.07283899090705508
sI2150
F0.009240583938521212
sI1000
F0.16953835923884022
sI1900
F0.01695591914973449
sI1650
F0.030862170544021617
sI1400
F0.060876981505044184
sI2300
F0.006749225535040437
sI1150
F0.10293153455787034
ssI1500
(dp21
I2050
F0.0016817365229498758
sI1800
F0.002808904623427224
sI1550
F0.004052648037920514
sI2450
F0.0007206689999942072
sI1300
F0.007167568638439234
sI2200
F0.0010845506607660368
sI1050
F0.011407720374864642
sI1950
F0.00180929929240205
sI1700
F0.0029606821594759963
sI1450
F0.004985605661128075
sI2350
F0.000796125015934419
sI1200
F0.009219203491557642
sI2100
F0.0012968356796744238
sI1850
F0.0023615918435584637
sI1600
F0.003788824650707198
sI2500
F0.0006613256089837867
sI1350
F0.006568383638264339
sI2250
F0.0009373828341719979
sI1100
F0.0128381457360612
sI2000
F0.001746275826572442
sI1750
F0.003039578503966724
sI1500
F0.005324902865388312
sI2400
F0.0008038390371710534
sI1250
F0.007402637949920059
sI2150
F0.0014535588679897558
sI1000
F0.011742432405219896
sI1900
F0.0021255934466178337
sI1650
F0.003305038659975458
sI1400
F0.006374837754906461
sI2300
F0.0008955651015981382
sI1150
F0.011319201253824709
ssI350
(dp22
I2050
F0.022764912821571587
sI1800
F0.04045903562595595
sI1550
F0.07134818432005462
sI2450
F0.008803125583160532
sI1300
F0.1591825694271119
sI2200
F0.015440548798486258
sI1050
F0.333973322104012
sI1950
F0.027685354591078553
sI1700
F0.05363668457651174
sI1450
F0.09971856910577821
sI2350
F0.01106707758397454
sI1200
F0.19825579593699133
sI2100
F0.0222174355889422
sI1850
F0.04204738131337749
sI1600
F0.05953841945578411
sI2500
F0.007990680609410687
sI1350
F0.12525970486856539
sI2250
F0.01452462449618032
sI1100
F0.26097422436019496
sI2000
F0.025566190655982552
sI1750
F0.05039144101575365
sI1500
F0.08828275727197568
sI2400
F0.009676636012807003
sI1250
F0.1868672655948628
sI2150
F0.017278478732292133
sI1000
F0.3627249626876228
sI1900
F0.030002309305783386
sI1650
F0.06111340621974736
sI1400
F0.11289118517734903
sI2300
F0.012199947295793828
sI1150
F0.233221651051723
ssI1250
(dp23
I2050
F0.002625020455552386
sI1800
F0.004774992322834633
sI1550
F0.008492568096733395
sI2450
F0.0011877417166449526
sI1300
F0.015219723431594596
sI2200
F0.0022353689022498076
sI1050
F0.022571269019810648
sI1950
F0.003408360886165032
sI1700
F0.00591940697403712
sI1450
F0.00945833216195369
sI2350
F0.0014682018960522495
sI1200
F0.016659034000144134
sI2100
F0.002519310296269778
sI1850
F0.004065588613983855
sI1600
F0.006905913625646533
sI2500
F0.0010655991987931516
sI1350
F0.014507010211814952
sI2250
F0.0014796423601077019
sI1100
F0.019265782677219522
sI2000
F0.003242002808671948
sI1750
F0.005838102343236179
sI1500
F0.008954435022539769
sI2400
F0.0014274152571577673
sI1250
F0.015242177616790841
sI2150
F0.0021018640642533285
sI1000
F0.021651841959847092
sI1900
F0.0032500677336739893
sI1650
F0.005703319105791149
sI1400
F0.011062825063621974
sI2300
F0.0016313167732559548
sI1150
F0.01968407488808592
ssI100
(dp24
I2050
F6.256641068845061e-07
sI1800
F1.6456933415398656e-06
sI1550
F4.268470100007371e-06
sI2450
F1.2264394112066706e-07
sI1300
F1.0628630179010277e-05
sI2200
F3.161087227669423e-07
sI1050
F2.833719525544582e-05
sI1950
F9.093315847365333e-07
sI1700
F2.3077031452955864e-06
sI1450
F6.536423762173175e-06
sI2350
F1.676222629837322e-07
sI1200
F1.5889989847897197e-05
sI2100
F4.795598658291182e-07
sI1850
F1.257368241687808e-06
sI1600
F3.542068708673155e-06
sI2500
F1.0097223711748011e-07
sI1350
F9.476289796509122e-06
sI2250
F2.7563465403891045e-07
sI1100
F2.2226666259603085e-05
sI2000
F7.635581490178811e-07
sI1750
F2.0255751389535744e-06
sI1500
F5.330686117031906e-06
sI2400
F1.373298520701722e-07
sI1250
F1.4347463021411773e-05
sI2150
F3.8179062485728577e-07
sI1000
F3.333134616106157e-05
sI1900
F1.085745089582765e-06
sI1650
F3.002603154825405e-06
sI1400
F7.324873577129795e-06
sI2300
F2.0293143243702086e-07
sI1150
F2.066774811213023e-05
ssI1000
(dp25
I2050
F0.004116312744863269
sI1800
F0.008065917600953161
sI1550
F0.01643658344419248
sI2450
F0.002294433399132462
sI1300
F0.023345290935252477
sI2200
F0.0036921675482328785
sI1050
F0.04318136636538873
sI1950
F0.005461751497395594
sI1700
F0.010284244081929309
sI1450
F0.018262680769609425
sI2350
F0.002357835866128684
sI1200
F0.03166323542183986
sI2100
F0.004873697499067732
sI1850
F0.00823454964273625
sI1600
F0.011361495312334848
sI2500
F0.0018303192000067839
sI1350
F0.02263634986073299
sI2250
F0.0031111658361831296
sI1100
F0.04025482707981287
sI2000
F0.004154650270263596
sI1750
F0.009228012576773472
sI1500
F0.016817044352993686
sI2400
F0.0023548698269779816
sI1250
F0.025616684885187785
sI2150
F0.0032417057139150687
sI1000
F0.056664123333918376
sI1900
F0.006407545911907153
sI1650
F0.011281607924374815
sI1400
F0.02231060117321477
sI2300
F0.0029875462159374283
sI1150
F0.03539228843148734
ssI750
(dp26
I2050
F0.008862705548224697
sI1800
F0.014929043769339328
sI1550
F0.02829939630464947
sI2450
F0.0033521471197416205
sI1300
F0.035832541739073714
sI2200
F0.006332047841861465
sI1050
F0.08768682316012795
sI1950
F0.010862851001045866
sI1700
F0.01952573927614652
sI1450
F0.029827096347232337
sI2350
F0.004182869318675266
sI1200
F0.06800753997454968
sI2100
F0.006972129527970328
sI1850
F0.014173060509450008
sI1600
F0.023205892119595232
sI2500
F0.003338027817011221
sI1350
F0.03672842276409705
sI2250
F0.005286942315603771
sI1100
F0.0795867810143211
sI2000
F0.009265769810334657
sI1750
F0.01640735221820951
sI1500
F0.027604554772028844
sI2400
F0.003796546622816614
sI1250
F0.05741038745403196
sI2150
F0.005974860849464373
sI1000
F0.11328678743739569
sI1900
F0.011929164295372557
sI1650
F0.02000119072083544
sI1400
F0.03635961042420127
sI2300
F0.004466635731562488
sI1150
F0.06755673622052324
ssI500
(dp27
I2050
F0.0154202642882813
sI1800
F0.026999454270964122
sI1550
F0.04986489581453886
sI2450
F0.005804163564393367
sI1300
F0.10010960046759504
sI2200
F0.011785208540221446
sI1050
F0.198613749287893
sI1950
F0.019307865906501274
sI1700
F0.034385448953007575
sI1450
F0.057651451897139105
sI2350
F0.007310792643828052
sI1200
F0.12645246476208405
sI2100
F0.013758465813911967
sI1850
F0.02444577134038828
sI1600
F0.04571102212236574
sI2500
F0.0056408322515570705
sI1350
F0.07464068889744266
sI2250
F0.009932913692098862
sI1100
F0.1708784762202699
sI2000
F0.01615612091987468
sI1750
F0.030920540115131224
sI1500
F0.058758356004139166
sI2400
F0.007079578809870759
sI1250
F0.10807221060753633
sI2150
F0.012927092422923486
sI1000
F0.23537611083576862
sI1900
F0.023146609849188503
sI1650
F0.03718227548178049
sI1400
F0.07100394798829576
sI2300
F0.008282872349768359
sI1150
F0.1335244784696478
ssI1400
(dp28
I2050
F0.0020189958659038794
sI1800
F0.003273622113240407
sI1550
F0.005039192491311673
sI2450
F0.0008374796506913611
sI1300
F0.009759341422313645
sI2200
F0.0015378507210560056
sI1050
F0.014245040601894828
sI1950
F0.0022755039764734996
sI1700
F0.004435077390568682
sI1450
F0.006995386851204955
sI2350
F0.0009725632192682934
sI1200
F0.012019425764163191
sI2100
F0.0017608220261923068
sI1850
F0.002803089508467225
sI1600
F0.005580788717153426
sI2500
F0.0007867221011580467
sI1350
F0.009886417071688415
sI2250
F0.0012237189105826982
sI1100
F0.01511259285243866
sI2000
F0.0019901328846161394
sI1750
F0.003912619557961852
sI1500
F0.005928529789516587
sI2400
F0.0010256422560126891
sI1250
F0.01002009099431408
sI2150
F0.00168854310745364
sI1000
F0.018462169568802613
sI1900
F0.0026450481056624607
sI1650
F0.004596609583785337
sI1400
F0.006958034978280864
sI2300
F0.0011472561662906843
sI1150
F0.013791169972756721
ssI250
(dp29
I2050
F0.027759933470571728
sI1800
F0.04766361185058122
sI1550
F0.09378285199021404
sI2450
F0.01017752274899847
sI1300
F0.19032956877649954
sI2200
F0.019442010031285883
sI1050
F0.4026921437509273
sI1950
F0.03507886649509819
sI1700
F0.060435263799765965
sI1450
F0.11511113926673212
sI2350
F0.013683124180060234
sI1200
F0.25883960305664794
sI2100
F0.024749116473468294
sI1850
F0.040115068788474
sI1600
F0.08429681042991533
sI2500
F0.010126658693100764
sI1350
F0.1710985676924528
sI2250
F0.018925964372234365
sI1100
F0.3647463962401429
sI2000
F0.027366681331978667
sI1750
F0.06306012244555678
sI1500
F0.11876060024444449
sI2400
F0.012130526972757148
sI1250
F0.23449827555235686
sI2150
F0.02209053625008751
sI1000
F0.4673793602066393
sI1900
F0.04137794563774801
sI1650
F0.07620156644155109
sI1400
F0.1420313779545224
sI2300
F0.0156312680190778
sI1150
F0.3020793541161931
ssI1150
(dp30
I2050
F0.0031168193384099475
sI1800
F0.006115105406910504
sI1550
F0.009278856101249566
sI2450
F0.0013502859532866654
sI1300
F0.016528182347671897
sI2200
F0.002524559316807472
sI1050
F0.034267842759021234
sI1950
F0.004295207680664835
sI1700
F0.008037113096014332
sI1450
F0.013193598708383774
sI2350
F0.001838109434747463
sI1200
F0.022953964754128465
sI2100
F0.00299450495824012
sI1850
F0.005656766848386227
sI1600
F0.009342319881824452
sI2500
F0.0012092914613286716
sI1350
F0.016514354888103516
sI2250
F0.0020219124151581165
sI1100
F0.03061349895617117
sI2000
F0.003768091603356428
sI1750
F0.006572303771952796
sI1500
F0.0108907208485976
sI2400
F0.0014971358085121042
sI1250
F0.019662321774803506
sI2150
F0.0027871058263471667
sI1000
F0.03216170269947938
sI1900
F0.004290027763216454
sI1650
F0.008060325009513555
sI1400
F0.013035495093257642
sI2300
F0.0019101789904062843
sI1150
F0.023966533356118997
ss.