(dp0
I2050
(dp1
I900
F0.0
sI1800
F5.252050149730326e-07
sI10
F6.488783688050326e-07
sI400
F0.0
sI1300
F5.45307919006296e-07
sI150
F0.0
sI25
F0.0
sI1950
F0.0
sI800
F1.733983484321453e-06
sI1700
F0.0
sI300
F5.924913207171865e-07
sI1200
F1.1423592858325325e-06
sI50
F8.480433300153068e-07
sI1850
F0.0
sI700
F4.478466377452478e-07
sI1600
F1.2524226868308222e-06
sI200
F8.894164038427776e-07
sI1100
F0.0
sI2000
F3.5176989138161307e-07
sI2040
F7.242876576346811e-07
sI1750
F1.2797587752642182e-06
sI600
F4.1869246746202725e-07
sI1500
F6.19999105866171e-07
sI100
F1.7164204001298701e-06
sI1000
F6.226897763688918e-07
sI2025
F5.091130504461931e-07
sI1900
F0.0
sI500
F2.824286206664162e-06
sI1400
F1.2666503739711954e-06
ssI900
(dp2
I800
F0.0002971269070764886
sI200
F0.00020322643481437264
sI10
F4.195402780785945e-06
sI300
F0.0004298635934383627
sI400
F0.00031685776141495483
sI500
F0.0003489838385290869
sI600
F0.0004518529869222561
sI890
F0.000730071853839702
sI700
F0.00015287175716509365
ssI1800
(dp3
I900
F3.365015997328031e-07
sI10
F1.7707178096861833e-06
sI1550
F0.0
sI400
F2.303220365138005e-06
sI1300
F1.1519299438563103e-06
sI150
F0.0
sI25
F2.4237560389832506e-06
sI800
F1.1424302854740563e-06
sI1700
F0.0
sI300
F1.3235512973691284e-06
sI1200
F0.0
sI50
F0.0
sI700
F2.4626880159002787e-06
sI1600
F9.239364989294156e-07
sI200
F1.9249201606520077e-06
sI1100
F1.3554655285334364e-06
sI1750
F5.012320692521401e-06
sI600
F1.0821256182152092e-06
sI1500
F4.229368100929624e-06
sI100
F1.9307770059881577e-06
sI1000
F2.034849159969976e-06
sI1775
F1.7034074679842569e-06
sI1650
F3.6082390302784514e-06
sI500
F2.642685933693232e-06
sI1400
F2.0867453125035957e-06
sI1790
F0.0
ssI1550
(dp4
I900
F3.433267896647283e-06
sI10
F0.0
sI400
F1.1990167178592171e-05
sI1300
F6.383713139507343e-06
sI150
F4.4877512345964336e-06
sI25
F4.316466141232252e-06
sI800
F8.378708360084633e-06
sI1450
F2.24427279302522e-05
sI300
F9.678107305829183e-06
sI1540
F1.6470232130108412e-05
sI1200
F2.0033485036383405e-05
sI50
F0.0
sI700
F1.3805514894212932e-07
sI1350
F1.138990601945134e-05
sI200
F0.0
sI1100
F0.0
sI600
F5.31655378562415e-06
sI1500
F2.1285611828058547e-05
sI1250
F0.0
sI100
F5.597822437855711e-06
sI1000
F0.0
sI500
F0.0
sI1525
F2.6875059622388623e-05
sI1400
F4.64942956913594e-06
ssI2450
(dp5
I900
F2.084892588557735e-07
sI1800
F3.9151543227401316e-08
sI10
F0.0
sI400
F1.5889173974443563e-07
sI1300
F4.4562684286458766e-08
sI150
F0.0
sI2200
F0.0
sI25
F0.0
sI800
F0.0
sI1700
F0.0
sI300
F0.0
sI2350
F8.677740802124398e-08
sI1200
F0.0
sI2440
F1.2013581501519847e-07
sI50
F0.0
sI2100
F0.0
sI700
F9.837229441296646e-08
sI1600
F1.6673253453171878e-07
sI200
F1.0824229343762292e-07
sI2250
F2.1006762377306617e-07
sI1100
F8.513639683799009e-08
sI2000
F0.0
sI600
F1.935096460782199e-08
sI1500
F9.555117418675451e-08
sI2400
F2.3297825149214686e-07
sI100
F4.469218844990568e-08
sI2150
F2.73607578993431e-07
sI1000
F2.0996484615963727e-07
sI1900
F8.91330404078329e-08
sI500
F6.203730187022783e-08
sI1400
F0.0
sI2425
F1.199885829036231e-07
sI2300
F1.4075125683888607e-07
ssI1300
(dp6
I800
F6.3009048877221665e-06
sI1200
F0.00013223247226423258
sI1250
F4.374671990533663e-05
sI100
F4.8500757431995074e-05
sI200
F5.908338684373961e-05
sI1100
F9.451151213046423e-05
sI10
F0.0
sI300
F2.0372319270284747e-05
sI400
F3.42927111320598e-05
sI1000
F9.980156836530327e-05
sI50
F0.0
sI500
F3.727894809807963e-05
sI1290
F2.934789016777904e-05
sI150
F0.0
sI600
F4.57183216684618e-05
sI25
F0.0
sI900
F1.9022111138673987e-05
sI1275
F1.2055733579224107e-05
sI700
F3.492848401590586e-05
sI1050
F0.00010764345004443324
sI1150
F7.332481475176289e-05
ssI2200
(dp7
I2050
F4.640084279791485e-07
sI900
F3.2490813414640395e-07
sI1800
F0.0
sI10
F3.438924243676243e-07
sI2190
F7.50980584953307e-07
sI400
F0.0
sI1300
F0.0
sI150
F0.0
sI25
F0.0
sI1950
F4.811486868800386e-07
sI800
F3.631126886055544e-07
sI1700
F1.3042424333695737e-07
sI300
F4.0665272731251926e-07
sI1200
F4.3165610474902556e-07
sI50
F0.0
sI2100
F0.0
sI700
F6.831024571640132e-07
sI1600
F5.346703502525711e-07
sI200
F2.3555881306345302e-07
sI1100
F3.1193986770389843e-07
sI2000
F2.097926386673889e-07
sI600
F3.832417854494883e-07
sI1500
F3.918215802031539e-07
sI100
F0.0
sI2150
F4.0605845153193417e-07
sI1000
F3.803817647427274e-07
sI1900
F7.917426577684032e-07
sI500
F0.0
sI1400
F0.0
sI2175
F0.0
ssI1050
(dp8
I800
F0.00015450967628562182
sI1025
F0.0002909376892117908
sI100
F0.00018415871963641775
sI950
F0.00012732802815835852
sI1040
F0.00016668557976612846
sI200
F0.00014580397292551794
sI10
F0.0
sI300
F0.000188219816689094
sI850
F0.00016373428111465292
sI750
F7.297816535996416e-05
sI400
F0.00010788318650912063
sI1000
F0.00018125668296868158
sI50
F4.315065928747025e-05
sI500
F0.00018794408953018318
sI150
F9.540450958646195e-05
sI600
F0.00015104293188159134
sI25
F0.0
sI900
F9.065096016118893e-05
sI700
F0.00024006632866662838
ssI1950
(dp9
I900
F0.0
sI1925
F2.0380179251087623e-06
sI1800
F2.17967353638455e-06
sI10
F1.0749241671622832e-06
sI400
F0.0
sI1300
F7.042414380318616e-07
sI150
F5.119601617149533e-07
sI25
F5.939370542669384e-07
sI800
F4.445374458764727e-07
sI1700
F3.480163008325932e-07
sI300
F6.933518859748505e-07
sI1200
F1.5246501466059762e-06
sI50
F0.0
sI1850
F1.2551183765202803e-06
sI700
F2.0981679973248138e-06
sI1600
F0.0
sI200
F1.913988295823009e-06
sI1100
F1.294500368819548e-06
sI1750
F1.115744959940983e-06
sI600
F2.0995698289028927e-06
sI1500
F2.518954194006191e-06
sI100
F5.996142734385554e-07
sI1000
F7.502795963580988e-07
sI1900
F1.4372770408634587e-06
sI1650
F1.7467216550361057e-06
sI500
F6.433360667033748e-07
sI1400
F1.3293175013835784e-06
sI1940
F5.692224500622899e-07
ssI800
(dp10
I200
F0.0003574670961415477
sI10
F0.0
sI300
F0.00017906074282082914
sI400
F0.0010172852957280318
sI500
F0.0013259003361880486
sI790
F0.0016274019292642438
sI600
F0.001121416830678061
sI700
F0.0017989398174832034
ssI1700
(dp11
I900
F5.883906686561545e-06
sI10
F1.5755389504978098e-06
sI1675
F1.345414052088771e-06
sI1550
F8.828701481942592e-06
sI400
F7.947522757609175e-06
sI1300
F1.3693319622378971e-06
sI150
F2.800371476476448e-07
sI25
F0.0
sI1690
F6.898433523459945e-06
sI800
F0.0
sI1450
F7.665235117254405e-06
sI300
F0.0
sI1200
F7.654869464646144e-06
sI50
F0.0
sI700
F7.36884227489734e-06
sI1600
F8.69443405546488e-06
sI200
F8.733450149129742e-06
sI1100
F3.2647174368696945e-06
sI600
F5.833951654120147e-06
sI1500
F2.1534390553419738e-06
sI100
F2.6876038780236676e-06
sI1000
F4.408181035665778e-06
sI1650
F9.301958772268454e-06
sI500
F0.0
sI1400
F0.0
ssI1450
(dp12
I900
F1.0554844827881088e-05
sI10
F0.0
sI400
F2.125410529297283e-05
sI1425
F8.301700167488878e-05
sI1300
F0.0
sI150
F1.44024051372305e-05
sI25
F0.0
sI800
F1.020271764722124e-05
sI300
F0.0
sI1200
F1.8372134156392754e-05
sI50
F0.0
sI700
F1.1789218655020873e-05
sI1440
F2.3721636488607373e-05
sI1350
F1.0267818915827817e-05
sI200
F1.9243149467191108e-05
sI1100
F6.516908389210454e-06
sI600
F9.071727344429126e-06
sI1250
F2.365911079535263e-05
sI100
F0.0
sI1000
F6.65768519172212e-06
sI500
F1.9827014479350307e-05
sI1400
F3.252216874934633e-05
sI1150
F0.0
ssI2350
(dp13
I2050
F9.409085023949309e-08
sI900
F1.6678341419349884e-07
sI1800
F2.2692825979971985e-07
sI10
F0.0
sI400
F0.0
sI1300
F2.0144670637423272e-07
sI2325
F1.3173879038141165e-07
sI150
F2.998433117474892e-07
sI2200
F0.0
sI25
F0.0
sI800
F1.7705535366293182e-07
sI1700
F1.451733109385733e-07
sI300
F0.0
sI1200
F8.996107474123744e-08
sI50
F1.0818120291600941e-07
sI2100
F1.6782003707535304e-07
sI700
F1.5254873861732418e-07
sI1600
F4.309270017732894e-07
sI200
F9.01637542086294e-08
sI2250
F0.0
sI1100
F0.0
sI2000
F1.43412335012158e-07
sI600
F1.1101324313932952e-07
sI2340
F2.0218580048124349e-07
sI1500
F9.53198188120519e-08
sI100
F0.0
sI2150
F0.0
sI1000
F1.9715108775910417e-07
sI1900
F1.832036135442486e-07
sI500
F1.691476092215243e-07
sI1400
F7.74774437351374e-11
sI2300
F0.0
ssI1200
(dp14
I800
F5.037710605688217e-05
sI100
F3.6949199403858735e-05
sI950
F2.532722712277338e-05
sI1190
F0.00018372641435855045
sI200
F1.350040070668834e-06
sI1100
F7.472271106762823e-05
sI10
F0.0
sI300
F0.00010854875979565362
sI400
F1.6304722844518574e-05
sI1000
F7.503068498741192e-05
sI50
F0.0
sI500
F4.261263128645386e-05
sI150
F5.515621288385342e-05
sI1175
F8.422934282392937e-05
sI600
F5.326450543533088e-05
sI25
F2.898719277004828e-05
sI900
F8.871492842541896e-05
sI700
F4.8321779920951295e-05
sI1050
F7.951739323001115e-05
sI1150
F8.246466998725382e-05
ssI2100
(dp15
I2050
F1.549004709905256e-06
sI900
F0.0
sI1800
F5.754371184514786e-07
sI10
F0.0
sI400
F1.1338814157576052e-06
sI1300
F0.0
sI150
F1.5286999772951883e-06
sI25
F0.0
sI2075
F1.1477035314779504e-06
sI1950
F0.0
sI800
F0.0
sI1700
F9.415338165541271e-07
sI2090
F8.299008405062461e-07
sI300
F0.0
sI1200
F0.0
sI50
F0.0
sI1850
F6.003285368267238e-07
sI700
F6.040177318024008e-07
sI1600
F0.0
sI200
F5.133744213413516e-07
sI1100
F0.0
sI2000
F0.0
sI600
F0.0
sI1500
F0.0
sI100
F0.0
sI1000
F1.9772296430428868e-07
sI1900
F0.0
sI500
F7.576128617452533e-07
sI1400
F2.323710351344557e-06
ssI1850
(dp16
I900
F0.0
sI1800
F1.5783500386002726e-06
sI10
F0.0
sI1550
F2.8456795025689005e-06
sI400
F1.3072220388044861e-06
sI1300
F3.024530810170788e-06
sI150
F8.975156237671569e-07
sI25
F0.0
sI800
F8.332981303621255e-07
sI1825
F9.625415462006789e-07
sI1700
F2.3207664245073414e-06
sI300
F1.1862334275740594e-06
sI1200
F0.0
sI50
F0.0
sI700
F1.9408235293724415e-06
sI1600
F8.794473812582652e-07
sI200
F1.7004292778792126e-06
sI1100
F1.2593205962817e-06
sI1750
F8.154891761790103e-07
sI600
F1.6603549975372638e-06
sI1500
F2.6169218296905023e-06
sI1840
F4.299480010597282e-09
sI100
F0.0
sI1000
F1.2628430760208571e-06
sI1650
F0.0
sI500
F8.37630071098544e-07
sI1400
F6.257210807735937e-07
ssI1600
(dp17
I900
F4.615591467716821e-06
sI10
F4.583986933141318e-06
sI1550
F0.0
sI400
F4.050676404547072e-06
sI1300
F4.119124188980244e-06
sI150
F3.643622621317685e-06
sI25
F0.0
sI800
F0.0
sI1575
F9.599896779121132e-06
sI1450
F3.0549383417491734e-06
sI300
F0.0
sI1200
F1.1607192577125352e-05
sI50
F0.0
sI1590
F1.0465648879919496e-05
sI700
F1.027601451451642e-05
sI1350
F8.77021426679916e-06
sI200
F7.244723704014979e-06
sI1100
F1.045778914936571e-05
sI600
F0.0
sI1500
F4.145339766669154e-06
sI100
F1.5238602078009301e-06
sI1000
F9.606035135705637e-06
sI500
F2.970970011873262e-06
sI1400
F1.0334314360128568e-05
ssI2500
(dp18
I900
F0.0
sI1800
F0.0
sI10
F0.0
sI400
F1.2217197786441834e-07
sI2450
F7.226914734836577e-08
sI1300
F1.1557379302846543e-07
sI150
F1.7128949477370963e-07
sI2200
F0.0
sI25
F0.0
sI800
F0.0
sI1700
F3.30400581478882e-08
sI2475
F0.0
sI300
F2.4533990101861986e-07
sI2350
F0.0
sI1200
F0.0
sI50
F0.0
sI2100
F0.0
sI2490
F2.0046266020339805e-07
sI700
F1.3366686116403209e-07
sI1600
F0.0
sI200
F7.219905882900806e-08
sI2250
F0.0
sI1100
F2.3647724557874839e-07
sI2000
F0.0
sI600
F0.0
sI1500
F1.5883591939784902e-07
sI2400
F2.32154185582723e-08
sI100
F7.475148670512673e-08
sI1000
F0.0
sI1900
F6.723139619715372e-08
sI500
F7.512268858651001e-08
sI1400
F4.909676067573778e-08
sI2300
F8.349329040149486e-08
ssI1350
(dp19
I900
F2.9696823526615735e-05
sI10
F0.0
sI400
F3.34335648483936e-05
sI1300
F1.747814264741425e-05
sI150
F1.7210668250917343e-05
sI25
F0.0
sI1050
F4.0111791399988636e-05
sI800
F9.473232267829699e-06
sI300
F1.8899028987855312e-05
sI1325
F3.545876113363438e-05
sI1200
F5.450152569132664e-05
sI50
F0.0
sI1340
F1.4493920936740077e-05
sI200
F0.0
sI1100
F9.940514623351223e-06
sI600
F1.7354028553540016e-05
sI1250
F1.7204202010790044e-05
sI100
F1.7913708911459943e-05
sI1000
F2.7672279054580196e-05
sI700
F1.5107261974988287e-05
sI500
F2.896089351082788e-05
sI1150
F3.100460508806754e-05
ssI2250
(dp20
I2240
F9.782861975622713e-07
sI2050
F2.4834754876342955e-07
sI900
F0.0
sI1800
F2.865506070349846e-07
sI10
F2.366292105005952e-07
sI400
F4.02072891794267e-07
sI1300
F3.0522104803841826e-07
sI150
F0.0
sI2200
F7.137173680996897e-07
sI25
F0.0
sI1950
F2.693086270845333e-07
sI800
F0.0
sI1700
F1.3870639162857205e-07
sI300
F0.0
sI1200
F2.956974105103936e-07
sI2225
F0.0
sI50
F0.0
sI2100
F1.9801001633729883e-07
sI700
F0.0
sI1600
F1.2714233709977619e-07
sI200
F0.0
sI1100
F7.564876676187571e-07
sI2000
F5.645462144303637e-07
sI600
F4.706209585271977e-07
sI1500
F6.181392840024329e-07
sI100
F2.870880941420071e-07
sI2150
F0.0
sI1000
F3.4087173430157437e-09
sI1900
F0.0
sI500
F5.261778044254415e-07
sI1400
F0.0
ssI1100
(dp21
I800
F0.00019308484907154189
sI1090
F0.00015942543242720213
sI100
F7.543650768531013e-05
sI950
F6.532970981954411e-05
sI200
F7.327813450482678e-05
sI10
F1.7995766605342238e-05
sI300
F8.893877317999226e-05
sI850
F0.0001732945231146362
sI400
F5.2966989918901144e-05
sI1000
F0.000100781877917242
sI50
F2.1659461899467653e-05
sI1075
F0.00014344932139589007
sI500
F0.00016086511899002885
sI150
F8.781419734139836e-05
sI600
F0.00017934916414166297
sI25
F0.0
sI900
F3.929229414593352e-05
sI700
F0.00017100997745046076
sI1050
F0.0002191014913380387
ssI2000
(dp22
I900
F7.007560978595419e-07
sI1800
F1.1261203284309047e-06
sI10
F0.0
sI400
F0.0
sI1300
F0.0
sI150
F0.0
sI25
F0.0
sI1950
F2.820152495388001e-07
sI800
F0.0
sI1700
F0.0
sI300
F2.5063614071649416e-06
sI1200
F9.191334188532033e-07
sI50
F0.0
sI1975
F0.0
sI1850
F0.0
sI700
F0.0
sI1600
F7.205562727512354e-07
sI1990
F7.273332134868494e-07
sI200
F1.0831344648371825e-06
sI1100
F6.842041211089312e-07
sI1750
F1.0841883863241542e-06
sI600
F0.0
sI1500
F1.0852185093485125e-06
sI100
F8.27077461395607e-07
sI1000
F0.0
sI1900
F2.987519928810521e-06
sI500
F7.379746303432523e-07
sI1400
F0.0
ssI1750
(dp23
I900
F0.0
sI10
F8.491341195293181e-07
sI1550
F2.8967485783292506e-06
sI400
F1.7939112707306024e-06
sI1300
F7.199080204846749e-06
sI150
F1.7267758744340947e-06
sI25
F0.0
sI800
F1.600995908943848e-06
sI1700
F3.172573408699047e-06
sI1450
F0.0
sI300
F2.999285001687407e-06
sI1200
F8.109926178419724e-06
sI50
F0.0
sI700
F1.030748348686392e-06
sI1725
F4.76162202158394e-06
sI1600
F7.659391421657359e-06
sI200
F6.80810594540438e-06
sI1740
F1.5816430029700869e-06
sI1100
F0.0
sI600
F1.3357125190086778e-06
sI1500
F1.7953623772073283e-06
sI100
F0.0
sI1000
F2.7095016430541637e-06
sI1650
F2.0380214119699854e-06
sI500
F1.9888242300576486e-06
sI1400
F1.7901496932163879e-06
ssI1500
(dp24
I900
F3.31544287435912e-06
sI10
F6.810795609283222e-06
sI400
F7.602116966830483e-06
sI1300
F2.7826775913136304e-05
sI150
F0.0
sI25
F0.0
sI800
F3.2838941205179647e-06
sI1450
F1.3028463031533095e-05
sI300
F2.69958847128953e-05
sI1200
F1.0192212243024049e-05
sI50
F0.0
sI700
F9.920594934277139e-06
sI1475
F1.9143443305418893e-05
sI1350
F3.3419207035356848e-06
sI200
F4.172896216808333e-05
sI1100
F1.9325511938597463e-05
sI1490
F0.0
sI600
F2.1095800512082085e-05
sI1250
F1.8116371202166225e-05
sI100
F5.830667439328431e-06
sI1000
F1.5190508912473523e-05
sI500
F6.583484613883713e-06
sI1400
F1.505968803121498e-05
ssI2400
(dp25
I900
F1.7077337802824538e-07
sI1800
F1.2664198675294043e-07
sI10
F0.0
sI400
F1.7571038036080968e-07
sI1300
F1.1496492239149509e-07
sI150
F0.0
sI2200
F0.0
sI25
F0.0
sI800
F0.0
sI1700
F1.4539790455137566e-07
sI300
F6.901362505274165e-08
sI2350
F1.7012676162592988e-07
sI1200
F0.0
sI50
F0.0
sI2100
F1.483086079024671e-07
sI700
F7.983867692030464e-08
sI1600
F4.807284607871927e-07
sI2375
F1.0413428331163784e-07
sI200
F2.7596139661983655e-07
sI2250
F1.593455103129092e-07
sI1100
F0.0
sI2000
F1.8086355447894628e-07
sI2390
F0.0
sI600
F1.1577111575725868e-07
sI1500
F9.824146396203998e-08
sI100
F0.0
sI2150
F1.7450101056604765e-07
sI1000
F0.0
sI1900
F1.3824789764184978e-07
sI500
F0.0
sI1400
F0.0
sI2300
F0.0
ssI1250
(dp26
I800
F1.736873551923154e-05
sI1200
F2.971391626247972e-05
sI100
F3.536104895188304e-05
sI950
F1.403130029910351e-05
sI200
F2.139798997648459e-05
sI1100
F0.00011821867040586187
sI10
F1.9368681619393596e-05
sI300
F5.3048909617986826e-05
sI1240
F7.246348864523395e-05
sI400
F2.0680752143920187e-05
sI1000
F0.0
sI50
F0.0
sI500
F3.108564224875721e-05
sI150
F7.999318051887725e-05
sI1225
F2.695606820502029e-05
sI600
F6.563494429614693e-05
sI25
F0.0
sI900
F5.40421897577966e-05
sI700
F7.073432547057918e-05
sI1050
F0.0
sI1150
F0.0
ssI2150
(dp27
I2050
F0.0
sI900
F0.0
sI1800
F5.21208914409195e-07
sI10
F0.0
sI400
F0.0
sI1300
F0.0
sI150
F0.0
sI25
F0.0
sI1950
F3.4999386030576407e-07
sI800
F8.610938430832842e-07
sI1700
F4.543147009425729e-07
sI2140
F3.3873318923292473e-07
sI300
F3.0049928120428996e-07
sI1200
F0.0
sI50
F1.0254943587969492e-06
sI2100
F1.645811446771238e-06
sI1850
F4.232960049234683e-07
sI700
F0.0
sI1600
F9.910326889743182e-07
sI200
F0.0
sI1100
F3.908952215749662e-07
sI2125
F0.0
sI2000
F3.232141262085806e-08
sI600
F3.2425563924625977e-07
sI1500
F4.77379500844215e-07
sI100
F0.0
sI1000
F9.517073037498472e-07
sI1900
F1.1773975412194712e-07
sI500
F3.934296314179077e-07
sI1400
F6.877026599648574e-07
ssI1000
(dp28
I800
F0.0003829117422197437
sI100
F0.00018343596508000202
sI950
F0.0002275938982446841
sI200
F0.00010596454269110504
sI10
F4.0618097878039735e-05
sI300
F0.00023479804464386414
sI850
F0.00013749214422212886
sI750
F0.00016224915023641296
sI975
F0.00024202214031718349
sI400
F0.00026751463601736
sI50
F2.056683506736685e-05
sI500
F0.00018654432377313574
sI150
F0.00019734822631917745
sI600
F0.0001358476028574695
sI25
F8.599121662923175e-05
sI900
F0.0003638766685045532
sI700
F0.00015554296515845996
sI990
F0.00014558407474563718
ssI1900
(dp29
I900
F1.4685282429338212e-06
sI1800
F1.5563722291799583e-06
sI10
F0.0
sI400
F0.0
sI1300
F1.3041608362709154e-06
sI150
F5.567316869673935e-07
sI25
F0.0
sI800
F1.6234435804294661e-06
sI1700
F2.6605017905341323e-06
sI300
F1.2092357539243283e-06
sI1200
F2.6902740042907106e-06
sI50
F7.960042211844472e-07
sI1850
F9.268910493871016e-07
sI700
F9.689564414810402e-07
sI1600
F3.322327196390042e-06
sI200
F2.303069751420006e-06
sI1100
F1.6570392818441497e-06
sI1875
F1.9974320284522096e-06
sI1750
F2.6757285049801663e-06
sI600
F1.9643711437436477e-06
sI1500
F2.1466939967993953e-06
sI1890
F2.2534187788624045e-06
sI100
F3.3148286274617064e-06
sI1000
F9.936392410113505e-07
sI1650
F0.0
sI500
F1.725763913112092e-06
sI1400
F1.4246548363219125e-06
ssI1650
(dp30
I900
F0.0
sI10
F1.7492416385650948e-06
sI1550
F3.5677334176499006e-06
sI400
F0.0
sI1300
F2.6419904575734835e-06
sI150
F3.4282333315181114e-06
sI25
F0.0
sI800
F4.456404283356852e-07
sI1450
F1.5776454282497446e-05
sI300
F5.574612015793656e-06
sI1200
F8.27538732255033e-06
sI50
F0.0
sI700
F2.894200345837483e-06
sI1600
F5.387408712001658e-06
sI1350
F5.059623116726285e-06
sI200
F6.0174779964584166e-06
sI1100
F0.0
sI600
F1.523439686783548e-07
sI1625
F1.227540814349755e-06
sI1500
F4.045200602296379e-06
sI100
F0.0
sI1000
F2.6791450668061434e-06
sI1640
F2.1921803927550346e-06
sI500
F5.792332524906161e-06
sI1400
F5.518885144519638e-06
ssI1400
(dp31
I900
F2.172384774053004e-05
sI10
F0.0
sI400
F0.0
sI1300
F2.5410855615353957e-05
sI150
F3.408074991761613e-05
sI25
F0.0
sI800
F4.198310315895907e-05
sI300
F1.6664797876961015e-05
sI1200
F2.223557409547767e-05
sI50
F0.0
sI700
F6.190114743765974e-05
sI1350
F0.0
sI200
F1.9365541625467145e-05
sI1100
F1.2546981996507866e-05
sI600
F0.0
sI1375
F2.7574265820183303e-05
sI1250
F2.461186454965161e-05
sI100
F0.0
sI1000
F0.0
sI1390
F5.116863165456059e-05
sI500
F1.4257219421058663e-05
sI1150
F2.3584197172049683e-05
ssI2300
(dp32
I2050
F0.0
sI900
F2.501693664060598e-07
sI1800
F1.7861606423712477e-07
sI10
F1.899666172094004e-07
sI400
F1.470185776143583e-07
sI1300
F2.3074762962859652e-07
sI150
F2.267037031706561e-07
sI2200
F2.3207744223913078e-07
sI25
F0.0
sI800
F0.0
sI1700
F1.2242770407467218e-07
sI300
F5.788971943685438e-07
sI1200
F4.2863535771157004e-07
sI50
F0.0
sI2100
F3.718775563603506e-07
sI700
F0.0
sI1600
F2.05631111172644e-07
sI200
F0.0
sI2250
F2.193258649277927e-07
sI1100
F0.0
sI2000
F0.0
sI600
F2.507247280385784e-07
sI1500
F4.211851504884675e-07
sI2275
F0.0
sI100
F0.0
sI2150
F0.0
sI1000
F2.0766643984391068e-07
sI1900
F1.5414886178698018e-07
sI2290
F0.0
sI500
F0.0
sI1400
F4.2011030813871734e-07
ssI1150
(dp33
I800
F3.22711931516546e-05
sI1140
F7.745406578990382e-05
sI100
F5.930491832646369e-05
sI950
F4.448799267579529e-05
sI200
F3.987124632361021e-05
sI1100
F0.000176749200128056
sI10
F1.7875994438844124e-05
sI300
F2.1834249013292063e-06
sI850
F9.158305032757062e-05
sI400
F8.480969281778129e-05
sI1000
F0.00010452190232234955
sI50
F3.7324524380337986e-06
sI500
F3.7704222513313795e-05
sI150
F5.665970883449279e-05
sI600
F1.2214957264536922e-05
sI25
F2.538676862354892e-05
sI900
F0.00010296942752714397
sI700
F0.00011857729006659409
sI1050
F9.358750485314702e-05
sI1125
F0.0001494188744409251
ss.