(dp0
I900
(dp1
I800
F0.0012369384446258938
sI100
F0.0013582544676864878
sI200
F0.0014146951105004338
sI10
F0.001488587436013157
sI75
F0.0014458457063364863
sI300
F0.0013887074191942517
sI750
F0.0009714517139089511
sI400
F0.0015147033717370073
sI50
F0.0014610310538300322
sI500
F0.001440452836276055
sI600
F0.0015064768907368392
sI25
F0.0019740468681846064
sI700
F0.0010391146949292169
ssI650
(dp2
I450
F0.009380453679668171
sI500
F0.008200561910296847
sI550
F0.010257262059417264
ssI400
(dp3
I200
F0.1583563214338996
sI300
F0.17332727839727474
sI10
F0.16834966987774552
sI100
F0.16710429329669668
sI250
F0.13562444667956686
ssI1300
(dp4
I800
F8.665006096530982e-05
sI1200
F7.423701084137772e-05
sI100
F8.404325893574003e-05
sI200
F9.565385683836111e-05
sI1100
F6.174149760129123e-05
sI10
F0.0001005919842595723
sI75
F8.860477658835837e-05
sI300
F9.375297474716703e-05
sI400
F0.00010518045499253722
sI1000
F8.754062983143434e-05
sI50
F9.907994931966272e-05
sI500
F0.00010486389162463976
sI600
F0.00010323879805297906
sI25
F9.908212749869967e-05
sI900
F8.898514212037766e-05
sI700
F0.00010048195120856073
sI1150
F6.639689830077871e-05
ssI1050
(dp5
I850
F0.0003645492930024518
sI900
F0.00031111520253284276
sI950
F0.0003997854211284855
ssI800
(dp6
I100
F0.003655603501445722
sI200
F0.002874627518500144
sI10
F0.0029234948812191046
sI75
F0.0029588916516567363
sI300
F0.0032011279944070504
sI400
F0.0032258582145660865
sI50
F0.003201059126556953
sI500
F0.002809240793569105
sI600
F0.0025288561316812994
sI25
F0.0029869105845843446
sI700
F0.0030153135940084513
sI650
F0.0020705365714496445
ssI550
(dp7
I400
F0.028363118493937852
sI450
F0.025366533387892746
sI350
F0.023245308823952423
ssI1450
(dp8
I1250
F3.6133720699180484e-05
sI1300
F2.600982481989833e-05
sI1350
F2.9562130720388696e-05
ssI300
(dp9
I200
F0.5706284470556137
sI10
F0.6290994451726138
sI100
F0.6120360473298215
sI150
F0.6126510329773067
ssI1200
(dp10
I800
F0.0001712892473713451
sI100
F0.00015913358604625197
sI200
F0.00022109937497132753
sI1100
F0.00014626167538833124
sI10
F0.000171098765898744
sI75
F0.00019748383931742153
sI300
F0.0001778117271604515
sI400
F0.0001950285762557462
sI1000
F0.0001280740401114714
sI50
F0.00016750641928749388
sI500
F0.0001942886614902499
sI600
F0.00018736139878331993
sI25
F0.0001773819794860812
sI900
F0.0001656598474901547
sI700
F0.00018834464404736143
sI1050
F0.0001355411085611382
ssI950
(dp11
I800
F0.0007169938331978545
sI850
F0.0007989177985091827
sI750
F0.00082135691021811
ssI700
(dp12
I100
F0.007054387235284921
sI550
F0.005126997860270358
sI200
F0.007707569255320627
sI10
F0.007645320507826955
sI300
F0.006511505874370369
sI400
F0.005999384152028762
sI500
F0.0059538085143273104
sI600
F0.0057848740754213
ssI450
(dp13
I250
F0.06893191514971604
sI300
F0.0789998170044446
sI350
F0.07764801298343064
ssI1350
(dp14
I1200
F5.363551102472648e-05
sI1250
F5.849621307479373e-05
sI1150
F5.900946766365296e-05
ssI1100
(dp15
I800
F0.00033826160875429845
sI100
F0.0003509645360605513
sI200
F0.00034026493261319057
sI10
F0.00037816275536846903
sI75
F0.00036665460816466685
sI300
F0.0003459693290907983
sI400
F0.000364588721443032
sI1000
F0.00031586204063591676
sI50
F0.00031897042685448304
sI500
F0.000356327713420772
sI950
F0.00027193794199590883
sI600
F0.0003184159281405637
sI25
F0.0003243081888749373
sI900
F0.00032204891106591126
sI700
F0.0003214873715927559
ssI850
(dp16
I650
F0.0017132296956951982
sI700
F0.0022911293922954906
sI750
F0.0016776959436805604
ssI600
(dp17
I450
F0.014560439851807095
sI100
F0.022178909269868045
sI200
F0.017250682368071566
sI10
F0.018501273877262303
sI300
F0.01790899962848053
sI400
F0.013551561402006513
sI500
F0.014369485314025826
ssI1500
(dp18
I800
F2.824735873311425e-05
sI1200
F2.9738809284485958e-05
sI100
F2.6416106385086937e-05
sI1350
F2.119251570040344e-05
sI1300
F2.699157952009996e-05
sI1400
F2.4018777389534903e-05
sI200
F2.736211821474621e-05
sI1100
F3.059903302219103e-05
sI10
F2.5615094549557106e-05
sI75
F2.425729078354534e-05
sI300
F2.617224880077035e-05
sI400
F2.3838485830048505e-05
sI1000
F3.3942232729288174e-05
sI50
F2.9079953313270237e-05
sI500
F3.0170343420612542e-05
sI600
F2.833118528929963e-05
sI25
F2.5172931269934346e-05
sI900
F2.6887065093155843e-05
sI700
F2.734621437729817e-05
ssI350
(dp19
I200
F0.28450761807486974
sI250
F0.30438851832842906
sI150
F0.34100989481872745
ssI1250
(dp20
I1050
F0.00010982779576568875
sI1100
F9.235349637945257e-05
sI1150
F0.00011850274154667972
ssI1000
(dp21
I800
F0.0005164655981088418
sI100
F0.0006859876709978507
sI200
F0.000675580381924929
sI10
F0.0007637302919807593
sI75
F0.0006756305035275786
sI300
F0.0007047024099585658
sI850
F0.000499349788924144
sI400
F0.0007067774097634252
sI50
F0.0006958350606558067
sI500
F0.0007637876917099783
sI600
F0.00069332560790374
sI25
F0.0007496057886751473
sI900
F0.0006265194396879925
sI700
F0.0006435917484354728
ssI750
(dp22
I600
F0.0038496683360034413
sI650
F0.003818483266947328
sI550
F0.00392197461864396
ssI500
(dp23
I100
F0.04895378240737283
sI200
F0.04789782701682716
sI10
F0.05182000620936382
sI300
F0.05097728810086597
sI400
F0.03903712336057753
sI350
F0.040419160761476884
ssI1400
(dp24
I800
F5.107645414055093e-05
sI1200
F3.827652235726601e-05
sI1250
F4.2751335159145606e-05
sI100
F4.68247244952527e-05
sI1300
F4.6428599489016226e-05
sI200
F5.656228708983411e-05
sI1100
F4.4015003966593856e-05
sI10
F4.94624240938135e-05
sI75
F4.446934653479398e-05
sI300
F4.92437925571616e-05
sI400
F5.1120704721084126e-05
sI1000
F4.772447172231881e-05
sI50
F4.654647348155767e-05
sI500
F5.9701353000790514e-05
sI600
F5.389936947283217e-05
sI25
F5.139244634559189e-05
sI900
F4.842019520410865e-05
sI700
F5.11825102563125e-05
ssI1150
(dp25
I1000
F0.000194607837815074
sI1050
F0.00023663871461800006
sI950
F0.00020342323961079688
ss.