(dp0
I640
(dp1
I480
F0.0011119948444511443
sI355
F0.001060539190399049
sI580
F0.00130428456876639
sI230
F0.0007718660141815333
sI455
F0.0015080282025861347
sI330
F0.0011093031966585727
sI555
F0.0018832393242610695
sI205
F0.0007472746130048598
sI430
F0.0014221502228494542
sI305
F0.0009992176613307614
sI530
F0.0023692517482228597
sI405
F0.0014401612876863714
sI630
F7.4153619021075e-05
sI280
F0.0010712426695411333
sI505
F0.0015627858794674532
sI380
F0.0012536677735467134
sI605
F0.0008026953987215577
sI255
F0.0011396556978599324
ssI515
(dp2
I480
F0.0018444861978686156
sI355
F0.0031332636745512923
sI230
F0.0021087744041914653
sI455
F0.00356356489328759
sI330
F0.003382637178082018
sI205
F0.0013496361852268076
sI430
F0.003836627702446662
sI305
F0.003205082066371468
sI405
F0.006268134285336563
sI280
F0.0026519247736971853
sI505
F9.6355937955766e-05
sI380
F0.003501885712705174
sI255
F0.001977756191539615
ssI390
(dp3
I355
F0.005208552790925686
sI230
F0.006673576707359012
sI330
F0.007168747809766654
sI205
F0.005883430230482266
sI305
F0.010585722059858617
sI280
F0.019382576071572358
sI380
F0.0007269949559424941
sI255
F0.006126040994764159
ssI265
(dp4
I205
F0.017669539443327584
sI230
F0.014341610032788108
sI255
F0.0028253123431147865
ssI915
(dp5
I905
F1.922808616723916e-05
sI780
F0.0003060241240496368
sI655
F0.00023716016987009535
sI530
F0.00020915438253011687
sI405
F0.00015940278094445865
sI280
F0.00013255697965621575
sI805
F0.00041765835838523377
sI680
F0.00027709476907075004
sI555
F0.00017320111849757674
sI430
F0.00020518174309028876
sI305
F0.00017466612149373174
sI830
F0.00036750912852160945
sI705
F0.0002778355872674328
sI580
F0.0002209103741822807
sI455
F0.00020426836720558367
sI330
F0.00016474968923119849
sI205
F0.00012476176561747475
sI855
F0.0001651773849770214
sI730
F0.0002682201626501927
sI605
F0.00023653536773527367
sI480
F0.0002117084262140111
sI355
F0.00019484315242987028
sI230
F0.00011196266406470563
sI880
F0.00012386911633679914
sI755
F0.00025138358587084965
sI630
F0.0002510707764950712
sI505
F0.00021875154452718183
sI380
F0.00016819880624713472
sI255
F0.00014408311893332232
ssI790
(dp6
I780
F1.5747356598019187e-05
sI655
F0.0006625534599639218
sI530
F0.0005243950379561893
sI405
F0.00038691665415999175
sI280
F0.0003639391315418014
sI680
F0.000820364615694332
sI555
F0.00043512584653001527
sI430
F0.0004147059051794638
sI305
F0.0004498793769445425
sI705
F0.0005497474523293457
sI580
F0.0005288355310229778
sI455
F0.00039283611929663917
sI330
F0.0003980057850652029
sI205
F0.0002976000802190107
sI730
F0.0005057176574162924
sI605
F0.0005912310506011432
sI480
F0.0004956774488657792
sI355
F0.0003874730889585414
sI230
F0.00031105258181599293
sI755
F0.0002481891084017169
sI630
F0.000504031304184335
sI505
F0.0004930464799916828
sI380
F0.0004642428525608564
sI255
F0.0003599069745827334
ssI665
(dp7
I480
F0.0010729416197721787
sI355
F0.000871420244181006
sI580
F0.0013324810977047553
sI230
F0.0007807702489495603
sI455
F0.0011658806017760019
sI330
F0.0008971157568375937
sI555
F0.002058893001102097
sI205
F0.0006846499730600564
sI430
F0.0010733888242826423
sI655
F7.713051268522112e-05
sI305
F0.0008370050510230335
sI530
F0.0013473452959578093
sI405
F0.0010038050353610003
sI630
F0.0005362442624103772
sI280
F0.0008757959013457074
sI505
F0.001317611755769016
sI380
F0.0009954986383231312
sI605
F0.0009313082997255162
sI255
F0.0007622079494923635
ssI540
(dp8
I480
F0.002777976570871647
sI355
F0.002500014677011031
sI230
F0.0016995922763214549
sI455
F0.003123761703533343
sI330
F0.0028659053005721845
sI205
F0.00149114791304056
sI430
F0.005584434591273547
sI305
F0.002201931401304769
sI530
F0.00024979821662426
sI405
F0.0027697676853011303
sI280
F0.001833939221080016
sI505
F0.001850085724491262
sI380
F0.0028117609109723457
sI255
F0.002018850321389686
ssI415
(dp9
I355
F0.006190981331376439
sI230
F0.005127950797698558
sI330
F0.005955748128341603
sI205
F0.0041306710702497945
sI305
F0.013403836687446715
sI405
F0.000523768934051968
sI280
F0.00783673875421399
sI380
F0.004555690878105047
sI255
F0.0068390054698798915
ssI290
(dp10
I280
F0.0011118135355031513
sI205
F0.017367222319224645
sI230
F0.015638659123090135
sI255
F0.012306696928145604
ssI940
(dp11
I905
F0.00011670909761581614
sI780
F0.0001937182743615831
sI655
F0.00021087923924626925
sI530
F0.00020048637174716386
sI405
F0.00019183794341567174
sI280
F0.00015301847994993016
sI930
F2.7657458605280084e-05
sI805
F0.0002576149078004178
sI680
F0.00021301106368816735
sI555
F0.0001737385794888106
sI430
F0.00016189953070465485
sI305
F0.00015101089474037321
sI830
F0.00038911944079159
sI705
F0.00019809776100654445
sI580
F0.000179954796094979
sI455
F0.0001537939755628937
sI330
F0.00017120192809860855
sI205
F0.00011452349771534382
sI855
F0.00021569403373924428
sI730
F0.0002232269759379476
sI605
F0.00017578218070865337
sI480
F0.0001827215096011168
sI355
F0.00015656379368528373
sI230
F0.0001166374611224737
sI880
F0.00019407942950598194
sI755
F0.000252020937013228
sI630
F0.0002123103515104972
sI505
F0.0001799452324701172
sI380
F0.000178048156350942
sI255
F0.0001389518237257657
ssI815
(dp12
I780
F0.00017778739205524314
sI655
F0.00042922598729803384
sI530
F0.0004493357459278018
sI405
F0.0003331485921207962
sI280
F0.00034685387950122537
sI805
F3.125227910750449e-05
sI680
F0.000553301816880492
sI555
F0.0004529888254281448
sI430
F0.00038778745711841675
sI305
F0.000298885448207422
sI705
F0.0007331806784613888
sI580
F0.00036536107789473165
sI455
F0.0003976371098914769
sI330
F0.0003318836942680969
sI205
F0.00019454818381009278
sI730
F0.00045474082460476265
sI605
F0.0004963895344632323
sI480
F0.00035069480934712174
sI355
F0.0003377692117998196
sI230
F0.00028686497161704627
sI755
F0.00033344626400116093
sI630
F0.00042937331425881226
sI505
F0.0003567021825528276
sI380
F0.00035609337624088223
sI255
F0.0002683215035867018
ssI690
(dp13
I480
F0.001036126272657833
sI355
F0.0008627668457555546
sI580
F0.0017097085690597374
sI230
F0.0005412725118630113
sI455
F0.0010547689579851367
sI680
F3.483890383111392e-05
sI330
F0.0007737127013315749
sI555
F0.0009738403532306955
sI205
F0.0005780246641514211
sI430
F0.0008594650888439277
sI655
F0.0005174724804102014
sI305
F0.0007386236142943762
sI530
F0.0011304281324340157
sI405
F0.0009556327163301292
sI630
F0.000927502417973312
sI280
F0.0006838064738708058
sI505
F0.0007991530645299244
sI380
F0.0009085527337420415
sI605
F0.0010223315881707615
sI255
F0.0006715356426585408
ssI565
(dp14
I480
F0.002719380463876952
sI355
F0.0023966267429345457
sI230
F0.0012872925684977228
sI455
F0.004800133082022124
sI330
F0.0021191371103369888
sI555
F0.00018353378331332885
sI205
F0.0013864550147183689
sI430
F0.0025902331893003718
sI305
F0.0022297626405727894
sI530
F0.0014567581828766685
sI405
F0.002333016103789656
sI280
F0.0017614605406436777
sI505
F0.0023454442888898247
sI380
F0.002324969786236527
sI255
F0.0019870179201845
ssI440
(dp15
I355
F0.007529500878969972
sI230
F0.004037372772632012
sI330
F0.012890714499920691
sI205
F0.00336908792059542
sI430
F0.0005132541651135652
sI305
F0.0052573987940807525
sI405
F0.003981332438685587
sI280
F0.004583790092161416
sI380
F0.0058612864546708325
sI255
F0.004017140122246439
ssI315
(dp16
I280
F0.009678301018060548
sI305
F0.0006158787009819094
sI205
F0.03979461231955901
sI230
F0.01530657755616391
sI255
F0.012020025598147235
ssI965
(dp17
I905
F0.00014990177319707996
sI780
F0.00017941244048593814
sI655
F0.0001674939242023479
sI530
F0.00011909790728829704
sI405
F0.00012171250967267967
sI280
F0.00013166347195378025
sI930
F0.0001157992645941988
sI805
F0.00017906298870357595
sI680
F0.0001577828138040331
sI555
F0.00018072262463999624
sI430
F0.00015606467394840894
sI305
F0.00013082992952068677
sI955
F9.668689756200808e-06
sI830
F0.00019288775723202124
sI705
F0.00017009199111461893
sI580
F0.00012149852426626027
sI455
F0.00015414105053159646
sI330
F0.00011941858541162826
sI205
F0.00012541003659316798
sI855
F0.000287319540906457
sI730
F0.00018251308677587637
sI605
F0.00015226619206766033
sI480
F0.00015340892076598045
sI355
F0.0001663434835329363
sI230
F8.61759965436874e-05
sI880
F0.00020884274965643994
sI755
F0.0001601136547802023
sI630
F0.00017870926609996608
sI505
F0.00013938969822578997
sI380
F0.0001712907577324027
sI255
F0.00010370825362277597
ssI840
(dp18
I780
F0.0003062506688686317
sI655
F0.0003459879715339266
sI530
F0.00031206357319079735
sI405
F0.0003005624845243141
sI280
F0.0003018117908411771
sI805
F0.0001394117095314543
sI680
F0.0003426126255349209
sI555
F0.0005125307875494929
sI430
F0.00023769116112711653
sI305
F0.00028255367850748886
sI830
F2.501804370276656e-05
sI705
F0.00039199670291983104
sI580
F0.000386498283811415
sI455
F0.00029581415475746616
sI330
F0.0003231877043733572
sI205
F0.0002641006332564133
sI730
F0.0005577621072855684
sI605
F0.0004116248494608933
sI480
F0.00033161283727994195
sI355
F0.0002596890638938921
sI230
F0.0002721924267941817
sI755
F0.0004096850639324896
sI630
F0.0003597394227852496
sI505
F0.00034356471185698187
sI380
F0.0002570426258543668
sI255
F0.0002749053372424043
ssI715
(dp19
I480
F0.0007796758781444411
sI705
F3.2585088872792217e-05
sI355
F0.0005826092894211924
sI580
F0.000844958580352685
sI230
F0.0004737361542468577
sI455
F0.0007896382658070393
sI680
F0.0005160811806848558
sI330
F0.0007365311284741904
sI555
F0.0009178825970898544
sI205
F0.0004810531890145156
sI430
F0.0006835744878177921
sI655
F0.0008477297009887201
sI305
F0.0006392652530300675
sI530
F0.0008985993441607226
sI405
F0.0007349510203634382
sI630
F0.000906689850686342
sI280
F0.0006228109384601069
sI505
F0.0008050708013072532
sI380
F0.0006746986592890764
sI605
F0.0016839491713347076
sI255
F0.000565937580107466
ssI590
(dp20
I480
F0.0033596846029274557
sI355
F0.0015435779083591528
sI580
F7.25394945482318e-05
sI230
F0.0008536031616540794
sI455
F0.002121748185495505
sI330
F0.0016672697505089817
sI555
F0.0013028702119474043
sI205
F0.0009387020627651578
sI430
F0.0018581164738253671
sI305
F0.0014784725870868381
sI530
F0.001844961585577617
sI405
F0.0019242849187742488
sI280
F0.0015165330588577477
sI505
F0.00236412628186046
sI380
F0.0017810503824917472
sI255
F0.001301277355671495
ssI465
(dp21
I355
F0.009698015217759398
sI230
F0.0027822418680974307
sI455
F0.000563080285353995
sI330
F0.004210307945215936
sI205
F0.002292221127915068
sI430
F0.0024328687795712608
sI305
F0.004813401961455287
sI405
F0.004972629891065028
sI280
F0.0039775293239433405
sI380
F0.005658917904170495
sI255
F0.003616429199687603
ssI340
(dp22
I230
F0.029011928755394996
sI330
F0.0010228062321465082
sI205
F0.00903712976544658
sI305
F0.006967661696730876
sI280
F0.011587697122899992
sI255
F0.013954124095220746
ssI215
(dp23
I205
F0.002677285109485764
ssI990
(dp24
I905
F0.00013582729660400664
sI780
F0.000146965167854899
sI655
F0.00014231795810016622
sI530
F0.0001405889016194461
sI405
F0.00010028870967533498
sI280
F0.00011277364097690843
sI930
F0.00012508148033272057
sI805
F0.00016844724235647943
sI680
F0.00014232874466079749
sI555
F0.00012084443348861763
sI430
F0.00010910563124382198
sI305
F0.0001166022072175034
sI955
F8.575673634719245e-05
sI830
F0.00014334638085082677
sI705
F0.00011113419124760422
sI580
F0.00015911018907168974
sI455
F0.00011813290648382645
sI330
F9.554785082786953e-05
sI205
F8.864878423927009e-05
sI980
F1.6075316007941153e-05
sI855
F0.00017861182845366143
sI730
F0.00015126754966304627
sI605
F0.0001298808274217016
sI480
F0.00013313390852883033
sI355
F0.00013566717330362589
sI230
F9.593426555277467e-05
sI880
F0.0002714543748190609
sI755
F0.0001463297331625925
sI630
F0.00013848704248445453
sI505
F0.00012325340823593297
sI380
F0.00012091146986681827
sI255
F9.896191085020729e-05
ssI865
(dp25
I780
F0.0004322837223289712
sI655
F0.00037763388040213194
sI530
F0.00029265791333940924
sI405
F0.0002684175903882561
sI280
F0.0002235268964800584
sI805
F0.00028758061388712284
sI680
F0.0003449217165415812
sI555
F0.0002531063651734877
sI430
F0.00028426925901714093
sI305
F0.00021177495631880867
sI830
F0.00013773440005192305
sI705
F0.0002831425121854704
sI580
F0.0003209418904749801
sI455
F0.0002558604995323907
sI330
F0.0002079601342767178
sI205
F0.0001972948486624397
sI855
F1.5371126512264087e-05
sI730
F0.0003836883943572927
sI605
F0.00033616463993300634
sI480
F0.0003044154724872046
sI355
F0.00025033875909147464
sI230
F0.00018591781597452527
sI755
F0.0005449849691170389
sI630
F0.000348105430649792
sI505
F0.00026739359079317116
sI380
F0.00019926595022362115
sI255
F0.00022717993110716616
ssI740
(dp26
I655
F0.0008369313305672936
sI530
F0.0006579816991041146
sI405
F0.0006769142288876251
sI280
F0.0005155695744556218
sI680
F0.0007059334716390819
sI555
F0.0006224239778140787
sI430
F0.0006027828859464341
sI305
F0.0007316692856575342
sI705
F0.00033202611979928423
sI580
F0.0007951378417130799
sI455
F0.000673716306334792
sI330
F0.0005269069328515211
sI205
F0.00034848305326784057
sI730
F2.0514351470605194e-05
sI605
F0.0006964587588127605
sI480
F0.0007149477125684057
sI355
F0.0004688453815895019
sI230
F0.0003189424301393928
sI630
F0.0012137759016828445
sI505
F0.0007697453623480873
sI380
F0.0005207989088964488
sI255
F0.000474464465168313
ssI615
(dp27
I480
F0.0019510716849979095
sI355
F0.0013512128345797866
sI580
F0.0010949774131715799
sI230
F0.0009274654915763791
sI455
F0.0018149530795837701
sI330
F0.0012614135579864098
sI555
F0.0014879985823632994
sI205
F0.0009432632149567881
sI430
F0.0016516108007121957
sI305
F0.0013697085380811975
sI530
F0.001959462252331657
sI405
F0.0014208257116491536
sI280
F0.0011359863388340356
sI505
F0.0032137460938446044
sI380
F0.0013528441941595458
sI605
F0.0001440464705615618
sI255
F0.0013738834255026839
ssI490
(dp28
I480
F0.000339725556794158
sI355
F0.0044502946254905305
sI230
F0.002515641068980189
sI455
F0.0026374596791358335
sI330
F0.0036799519081023723
sI205
F0.0023707200823945306
sI430
F0.002690290725683446
sI305
F0.0033756136033164168
sI405
F0.004314776807418527
sI280
F0.0030863499796001804
sI380
F0.007042217532216428
sI255
F0.0030032742753328895
ssI365
(dp29
I355
F0.0006211643237255464
sI230
F0.008083103354847387
sI330
F0.007211932315207237
sI205
F0.005181574598264546
sI305
F0.00973419627637336
sI280
F0.012353470330804098
sI255
F0.01993686512770407
ssI240
(dp30
I205
F0.0165501253309944
sI230
F0.00301092182343052
ssI1015
(dp31
I905
F0.0002535929429484189
sI780
F0.00014618795640609073
sI655
F0.00012101512306217432
sI530
F0.00011483070932054953
sI405
F0.00012441049231365136
sI280
F7.669032789045605e-05
sI930
F0.00015075807607767432
sI805
F0.00013081508329538895
sI680
F0.00011001930040248161
sI555
F9.012982192351385e-05
sI430
F0.00011676874375233601
sI305
F8.548223527596563e-05
sI955
F9.419337548621752e-05
sI830
F0.00012482531596272003
sI705
F0.00012440098979539754
sI580
F0.00010091626612720047
sI455
F0.0001145161380357911
sI330
F9.400547102995894e-05
sI205
F6.51132655938542e-05
sI980
F6.854652125252507e-05
sI855
F0.00014353257349504644
sI730
F0.00011987708268256822
sI605
F0.00011919697855953785
sI480
F0.00010277831406769481
sI355
F0.00011278000747560346
sI230
F7.802299876142349e-05
sI1005
F7.766216691563191e-06
sI880
F0.00014303075861556936
sI755
F0.00013129108547764928
sI630
F0.00013396509026620076
sI505
F0.00010107950153362478
sI380
F0.0001059651588896481
sI255
F9.916292358450964e-05
ssI890
(dp32
I780
F0.00045827048363414406
sI655
F0.0003549108253409091
sI530
F0.0003069246270458792
sI405
F0.00020343486842512115
sI280
F0.00018343829118238787
sI805
F0.0003701424894527295
sI680
F0.0002522586967749233
sI555
F0.0002726059910532748
sI430
F0.0002219048281468178
sI305
F0.00022715896718172393
sI830
F0.00023932691798479885
sI705
F0.000259686000149496
sI580
F0.00029196467561851624
sI455
F0.0002151563420938972
sI330
F0.0001952342658363113
sI205
F0.000142369885123167
sI855
F0.00018389845030989977
sI730
F0.00029649125130850603
sI605
F0.0002865696279371999
sI480
F0.0002089135860937233
sI355
F0.00020829612972340746
sI230
F0.00014842964637336604
sI880
F7.83884342001046e-06
sI755
F0.00028115400738904157
sI630
F0.00023863487158772392
sI505
F0.00024156202807774967
sI380
F0.00023996702634833438
sI255
F0.00013659879171692586
ssI765
(dp33
I655
F0.0012261498034731267
sI530
F0.0005742605017166782
sI405
F0.000557748455919671
sI280
F0.00032059167933549634
sI680
F0.0008682519771091345
sI555
F0.0006985374037710327
sI430
F0.00046119413423751585
sI305
F0.0004955735805816602
sI705
F0.0005373695047114955
sI580
F0.000634721296374918
sI455
F0.0005866343124072889
sI330
F0.0003829932587514622
sI205
F0.0002986939327437444
sI730
F0.0003337681167239591
sI605
F0.000708795577917357
sI480
F0.0005417787594635006
sI355
F0.000493190357011515
sI230
F0.0003917022617915425
sI755
F7.887779595104162e-05
sI630
F0.0008717602424287918
sI505
F0.0006080937937480882
sI380
F0.00045506198738084846
sI255
F0.0003940315657375333
ss.