(dp0
I900
(dp1
I900
F0.2729446704083558
sI650
F0.5641355538775221
sI400
F0.13142289586966102
sI1300
F0.03501674730050706
sI1050
F0.11811661171886936
sI800
F0.5150496637464967
sI550
F0.02798128015840007
sI1450
F0.016478233587304835
sI300
F0.0
sI1200
F0.0561909493311832
sI950
F0.2099822454261905
sI700
F0.6717085256678144
sI450
F0.05731107861297045
sI1350
F0.02621746955289828
sI200
F0.0
sI1100
F0.08452231146418873
sI850
F0.36747855976705535
sI600
F0.014179709134784531
sI1500
F0.012052353705225356
sI350
F0.13483972379316095
sI1250
F0.04053355403353241
sI1000
F0.17105131062793014
sI750
F0.6042648604692709
sI500
F0.06354785212392006
sI1400
F0.017207576714201752
sI250
F0.0
sI1150
F0.07006533254677079
ssI650
(dp2
I900
F0.3180027656680882
sI650
F1.4891874982698265
sI400
F0.1852177691146291
sI1300
F0.03511441618392646
sI1050
F0.13099920914638657
sI800
F0.5290438948488249
sI550
F2.1647281668737723
sI1450
F0.017132884126673617
sI300
F0.0
sI1200
F0.057600979607288404
sI950
F0.22723140940928413
sI700
F1.0130339854619026
sI450
F0.05019297772703843
sI1350
F0.02901031028651192
sI200
F0.0
sI1100
F0.10367247349636377
sI850
F0.39668768156795137
sI600
F1.8965377785926267
sI1500
F0.0130378089629745
sI350
F0.24964137582668416
sI1250
F0.040421802912495676
sI1000
F0.1611254795669452
sI750
F0.6985127189187379
sI500
F1.086978781283663
sI1400
F0.020592954516992217
sI250
F0.0
sI1150
F0.06898870711074492
ssI400
(dp3
I900
F0.34253442288195357
sI650
F1.7134927472253003
sI400
F12.303703910867883
sI1300
F0.038544717743621594
sI1050
F0.13707016489076307
sI800
F0.6456815297932981
sI550
F3.6721984681282267
sI1450
F0.01835786733608779
sI300
F0.0
sI1200
F0.060608021198720795
sI950
F0.22937527441817931
sI700
F1.230037266325059
sI450
F7.595571857976472
sI1350
F0.029956598145137493
sI200
F0.0
sI1100
F0.0990886438341618
sI850
F0.4789648577274906
sI600
F2.4944734873458736
sI1500
F0.015102641273015891
sI350
F3.803274341003806
sI1250
F0.04664546341552379
sI1000
F0.1662215208924538
sI750
F0.7509433010401646
sI500
F5.515576013194775
sI1400
F0.023293749958501853
sI250
F0.0
sI1150
F0.08358585931568435
ssI1300
(dp4
I900
F0.08221482743833125
sI650
F0.008647869330592167
sI400
F0.24319340525192015
sI1300
F0.03127251683875661
sI1050
F0.10239486406500577
sI800
F0.0
sI550
F0.030718300284810155
sI1450
F0.01696339856937032
sI300
F0.0
sI1200
F0.051208252330800355
sI950
F0.138051457596498
sI700
F0.013277487985950657
sI450
F0.14153591175248448
sI1350
F0.02605486075836787
sI200
F0.0
sI1100
F0.07793175877282342
sI850
F0.036213711646428615
sI600
F0.029370924809336514
sI1500
F0.012790918080978497
sI350
F0.2817302185729944
sI1250
F0.04746519770968726
sI1000
F0.10146414197761335
sI750
F0.004107354666102471
sI500
F0.05487574890789308
sI1400
F0.01742749925223244
sI250
F0.0
sI1150
F0.05813070406365464
ssI1050
(dp5
I900
F0.2058810427463767
sI650
F0.0
sI400
F0.11297254963106351
sI1300
F0.03773849416991125
sI1050
F0.10823468980495278
sI800
F0.38436600192632314
sI550
F0.06825196956100925
sI1450
F0.01507885566324816
sI300
F0.0
sI1200
F0.0477708926285396
sI950
F0.1957143702947043
sI700
F0.042743971325742744
sI450
F0.09448648072676255
sI1350
F0.022149503455057264
sI200
F0.0
sI1100
F0.09860774124247242
sI850
F0.27983582980596716
sI600
F0.01381670765566496
sI1500
F0.012730278038452796
sI350
F0.26413928491808925
sI1250
F0.04135021778679488
sI1000
F0.1405159652235628
sI750
F0.2145602047102203
sI500
F0.05976133159739495
sI1400
F0.02161083279907894
sI250
F0.0
sI1150
F0.07232184076674203
ssI800
(dp6
I900
F0.30227564687112657
sI650
F0.9805200116524492
sI400
F0.06648173636114978
sI1300
F0.03327121063234081
sI1050
F0.14367828558605109
sI800
F0.4133534775546813
sI550
F0.025372549492154946
sI1450
F0.016675524682543685
sI300
F0.0
sI1200
F0.05320270143315638
sI950
F0.23885244509500128
sI700
F0.9281283013376808
sI450
F0.08135404674517067
sI1350
F0.02686551864676829
sI200
F0.0
sI1100
F0.10782370918484113
sI850
F0.3526182833776476
sI600
F0.6583217328060519
sI1500
F0.012752488365201809
sI350
F0.0
sI1250
F0.04474826989553412
sI1000
F0.14688529408935894
sI750
F0.5261823170058623
sI500
F0.1198539147467062
sI1400
F0.020762200820201294
sI250
F0.0
sI1150
F0.07055969531595585
ssI550
(dp7
I900
F0.3153745348824938
sI650
F1.5691678741575614
sI400
F0.15029725211239411
sI1300
F0.03739237989187017
sI1050
F0.1369523367723191
sI800
F0.6171311236692524
sI550
F3.086730751082881
sI1450
F0.017859639317943515
sI300
F0.0
sI1200
F0.05712418668361488
sI950
F0.2441597345148796
sI700
F1.0520419146699749
sI450
F2.96345791931928
sI1350
F0.030004317251039317
sI200
F0.0
sI1100
F0.10241843830070792
sI850
F0.429419028823491
sI600
F2.2516300144374846
sI1500
F0.013868178231804425
sI350
F0.0
sI1250
F0.04416898222303871
sI1000
F0.17479746147546313
sI750
F0.8724576079676073
sI500
F3.7536628954006646
sI1400
F0.02178276336500134
sI250
F0.0
sI1150
F0.07416748295606025
ssI1450
(dp8
I900
F0.0043025588343943355
sI650
F0.019324846784243597
sI400
F0.11749335641414868
sI1300
F0.031670856367159606
sI1050
F0.07131182432746981
sI800
F0.009756498006374272
sI550
F0.043602248507621545
sI1450
F0.013338009065116563
sI300
F0.0
sI1200
F0.04016371264358423
sI950
F0.03899463074697015
sI700
F0.014689126490543008
sI450
F0.17751258026335473
sI1350
F0.024990402731200317
sI200
F0.0
sI1100
F0.08562664214200325
sI850
F0.005203354950266879
sI600
F0.0
sI1500
F0.012837492958245473
sI350
F0.3643800834755026
sI1250
F0.03722102059285002
sI1000
F0.0678510226109225
sI750
F0.004368144355760586
sI500
F0.016273811612885353
sI1400
F0.01877143045594204
sI250
F0.0
sI1150
F0.0564620289896315
ssI300
(dp9
I900
F0.3227523699199799
sI650
F1.5801049718553435
sI400
F16.92003439781514
sI1300
F0.03727674697728909
sI1050
F0.13526956496666975
sI800
F0.5931836815112791
sI550
F3.80041740047061
sI1450
F0.017992895305187093
sI300
F13.938232803673646
sI1200
F0.062120509006242386
sI950
F0.23265388313865037
sI700
F1.0625651225938388
sI450
F8.754945317352215
sI1350
F0.029782416840207146
sI200
F0.0
sI1100
F0.1154486591539963
sI850
F0.39849896049785793
sI600
F2.360919872831995
sI1500
F0.01333389116693087
sI350
F27.970730169098363
sI1250
F0.04448479345571419
sI1000
F0.15715052928122195
sI750
F0.8451921343816499
sI500
F5.996820714562482
sI1400
F0.02194212468863122
sI250
F0.0
sI1150
F0.07509621961048911
ssI1200
(dp10
I900
F0.18348270756051485
sI650
F0.019782092224162922
sI400
F0.1728235798781563
sI1300
F0.03349280560871269
sI1050
F0.11310534215314812
sI800
F0.0734795209396351
sI550
F0.021790055988594265
sI1450
F0.017544111669695415
sI300
F0.0
sI1200
F0.05162600966576437
sI950
F0.194488392141284
sI700
F0.0054107405304545855
sI450
F0.0945118020645863
sI1350
F0.02397350315302875
sI200
F0.0
sI1100
F0.08145750250031712
sI850
F0.16641345200581678
sI600
F0.06250953088729515
sI1500
F0.011209940585085756
sI350
F0.0
sI1250
F0.048058962543108125
sI1000
F0.1512787246880127
sI750
F0.00864554026501956
sI500
F0.04309265932131593
sI1400
F0.020209758022934746
sI250
F0.0
sI1150
F0.06939135905112612
ssI950
(dp11
I900
F0.2605280846117458
sI650
F0.10461170909721237
sI400
F0.1648270277210514
sI1300
F0.03660302952339694
sI1050
F0.12147476043018669
sI800
F0.41512652906129605
sI550
F0.02872456248371803
sI1450
F0.01782741381332994
sI300
F0.40899927261769714
sI1200
F0.06011362200417131
sI950
F0.21632079207746036
sI700
F0.4271279616749846
sI450
F0.16292636891042594
sI1350
F0.024374992378236128
sI200
F0.0
sI1100
F0.09210356772901386
sI850
F0.31913196988875986
sI600
F0.035585476760278935
sI1500
F0.014466018615174728
sI350
F0.0
sI1250
F0.03842370966964255
sI1000
F0.15462146690584416
sI750
F0.4607014472947862
sI500
F0.07697869423822956
sI1400
F0.02210267964246392
sI250
F0.0
sI1150
F0.07042230142292885
ssI700
(dp12
I900
F0.29508869987885267
sI650
F1.1910942869431982
sI400
F0.09635845363617439
sI1300
F0.034450033038817156
sI1050
F0.1268647512125033
sI800
F0.54422021140885
sI550
F1.4264621460182405
sI1450
F0.01843491299804414
sI300
F0.0
sI1200
F0.057058791880827034
sI950
F0.23378495094187715
sI700
F0.9318592429715388
sI450
F0.062459896010770004
sI1350
F0.030896645984026253
sI200
F0.0
sI1100
F0.10461423239017922
sI850
F0.41053710274815997
sI600
F1.5469357610995047
sI1500
F0.01306205142212645
sI350
F0.4431249757585436
sI1250
F0.04283924351040645
sI1000
F0.1443441446814021
sI750
F0.7571406446352796
sI500
F0.20113860163039457
sI1400
F0.021728592168287705
sI250
F0.0
sI1150
F0.06846965952654972
ssI450
(dp13
I900
F0.3293153830335156
sI650
F1.7738935405414205
sI400
F6.209087625914616
sI1300
F0.03896093740288024
sI1050
F0.138519205478303
sI800
F0.6410042934079602
sI550
F3.5958017212909503
sI1450
F0.018625936475923806
sI300
F0.0
sI1200
F0.05631173204211368
sI950
F0.23734487170454815
sI700
F1.0857851205223819
sI450
F7.454539094896689
sI1350
F0.026776012600295697
sI200
F0.0
sI1100
F0.10033765001905329
sI850
F0.47304721811346373
sI600
F2.4429291960077495
sI1500
F0.015351925824624852
sI350
F0.25712292219110555
sI1250
F0.049340217918038526
sI1000
F0.17858997386757935
sI750
F0.8018961317188436
sI500
F5.343174434972538
sI1400
F0.023452392584130555
sI250
F0.0
sI1150
F0.07292609548172153
ssI1350
(dp14
I900
F0.05128186198250287
sI650
F0.009731181490606585
sI400
F0.17935349913536347
sI1300
F0.03228340463670232
sI1050
F0.10302379828910992
sI800
F0.012956221684498852
sI550
F0.04585116889934958
sI1450
F0.016715003627934655
sI300
F0.4024545426548065
sI1200
F0.053171435116173595
sI950
F0.10747459254573298
sI700
F0.019829177712938077
sI450
F0.08373955767558446
sI1350
F0.025792251825717746
sI200
F0.0
sI1100
F0.0843572581274188
sI850
F0.00811330860420658
sI600
F0.014804044988884782
sI1500
F0.01265696040467617
sI350
F0.1574380506487269
sI1250
F0.03649045347761239
sI1000
F0.10685361296299459
sI750
F0.00515101382266401
sI500
F0.032211817397095194
sI1400
F0.018774825332123397
sI250
F0.0
sI1150
F0.06903610387249345
ssI200
(dp15
I900
F0.32450581065239875
sI650
F1.595740111943944
sI400
F16.909668101697598
sI1300
F0.03733263812547729
sI1050
F0.12270734781346833
sI800
F0.5129281265586793
sI550
F3.7279371007972513
sI1450
F0.017754352092775413
sI300
F48.62917408942545
sI1200
F0.058184755643519416
sI950
F0.26671516664607725
sI700
F1.071841224618793
sI450
F8.32635285586696
sI1350
F0.029814192559499467
sI200
F0.0
sI1100
F0.0924247718676861
sI850
F0.4304545370721026
sI600
F2.161636822866369
sI1500
F0.01416146758853485
sI350
F29.537833365970087
sI1250
F0.04702764094740489
sI1000
F0.16671062844966328
sI750
F0.7980310459376855
sI500
F5.386433531243536
sI1400
F0.023795895986336014
sI250
F60.23485350866275
sI1150
F0.07409215793988362
ssI1100
(dp16
I900
F0.22925811139617203
sI650
F0.03277179462406502
sI400
F0.3849442106074688
sI1300
F0.036441348344002776
sI1050
F0.11011441710063542
sI800
F0.2922869258231431
sI550
F0.02515985321835674
sI1450
F0.01876244763901067
sI300
F0.0
sI1200
F0.048976754002532236
sI950
F0.19934289712525502
sI700
F0.02159517113843732
sI450
F0.0937476229683651
sI1350
F0.027333488344490297
sI200
F0.0
sI1100
F0.10115150370392792
sI850
F0.28032537773022215
sI600
F0.03283395638808411
sI1500
F0.01262170575079142
sI350
F0.13318527461055968
sI1250
F0.042830754234053116
sI1000
F0.1226099466104928
sI750
F0.10214608493614302
sI500
F0.02962396299609813
sI1400
F0.02032859619201482
sI250
F0.0
sI1150
F0.06554706076243184
ssI850
(dp17
I900
F0.29175021723859945
sI650
F0.6546544043039261
sI400
F0.12479179732549396
sI1300
F0.03281184520941735
sI1050
F0.13188576819115333
sI800
F0.5415890189325887
sI550
F0.0
sI1450
F0.01718267670306493
sI300
F0.0
sI1200
F0.06019789437427
sI950
F0.20526947609930665
sI700
F0.5514578250666732
sI450
F0.07593571200815064
sI1350
F0.026488336008615686
sI200
F0.0
sI1100
F0.08788997049782644
sI850
F0.35061404270935825
sI600
F0.40080193612819287
sI1500
F0.01512880118427543
sI350
F0.0
sI1250
F0.049367155016407996
sI1000
F0.17356611596179225
sI750
F0.7223138802955933
sI500
F0.08806524314438478
sI1400
F0.019466684213447084
sI250
F0.0
sI1150
F0.06506448577466172
ssI600
(dp18
I900
F0.28194297385669026
sI650
F1.4733544290896075
sI400
F0.16124229588011077
sI1300
F0.037393850093449074
sI1050
F0.13099703573049737
sI800
F0.5153503058585535
sI550
F2.5862679428180564
sI1450
F0.017164763103773704
sI300
F0.0
sI1200
F0.053012561027445324
sI950
F0.25025004738112866
sI700
F1.057184220988049
sI450
F0.590012368889799
sI1350
F0.031096848115751818
sI200
F0.0
sI1100
F0.1005943510596789
sI850
F0.40803902801156605
sI600
F2.0200734453900897
sI1500
F0.01337944492479022
sI350
F0.26012154621297323
sI1250
F0.04430688370686085
sI1000
F0.17068530127866274
sI750
F0.770625644777024
sI500
F2.194311762035863
sI1400
F0.024049926101054
sI250
F0.0
sI1150
F0.07331755499121516
ssI1500
(dp19
I900
F0.0017779427702077314
sI650
F0.010999923077939735
sI400
F0.3829810966219655
sI1300
F0.03307933747646233
sI1050
F0.056781908884118625
sI800
F0.0028525862311617684
sI550
F0.07823827050320714
sI1450
F0.015210976522378567
sI300
F0.0
sI1200
F0.04288887567412256
sI950
F0.003685719368677606
sI700
F0.015483653307958938
sI450
F0.054331469122705804
sI1350
F0.02627830000848118
sI200
F0.0
sI1100
F0.06814238080316913
sI850
F0.0045394308279263764
sI600
F0.01303734922266728
sI1500
F0.01190236768246659
sI350
F0.13648414463034347
sI1250
F0.0348585428444724
sI1000
F0.03821517649843502
sI750
F0.010958543360530322
sI500
F0.05944883322947034
sI1400
F0.01887274150255167
sI250
F0.0
sI1150
F0.062116000122565955
ssI350
(dp20
I900
F0.31519737176205265
sI650
F1.5787428933508463
sI400
F14.924019710697161
sI1300
F0.04050816216225311
sI1050
F0.13718117988418577
sI800
F0.6187762410975072
sI550
F3.780903491004204
sI1450
F0.01798599940747643
sI300
F0.40331527662496763
sI1200
F0.06423947209162327
sI950
F0.25132701499471466
sI700
F1.091663963203921
sI450
F9.290142283293106
sI1350
F0.02925862207145685
sI200
F0.0
sI1100
F0.1061488114247257
sI850
F0.44359589963387447
sI600
F2.3685230089749463
sI1500
F0.01564582116535106
sI350
F14.985366492206495
sI1250
F0.047520364673928873
sI1000
F0.16786263711244231
sI750
F0.8737164325109742
sI500
F5.526839308124925
sI1400
F0.022933693779461
sI250
F0.0
sI1150
F0.07250424960987106
ssI1250
(dp21
I900
F0.1295828219562279
sI650
F0.03802327665017733
sI400
F0.11471875916780942
sI1300
F0.035706086638437294
sI1050
F0.10629083549658448
sI800
F0.010102659366524653
sI550
F0.023430963122631335
sI1450
F0.015115535024485769
sI300
F0.33464372176016
sI1200
F0.04519287692717414
sI950
F0.13695025879722533
sI700
F0.015779089808797362
sI450
F0.1344063408242581
sI1350
F0.027504639437018495
sI200
F0.0
sI1100
F0.09414562570670436
sI850
F0.08777598151518382
sI600
F0.016017760021414074
sI1500
F0.012223267544803195
sI350
F0.17572152796397922
sI1250
F0.03964879606725698
sI1000
F0.12662369011752297
sI750
F0.008956812742079035
sI500
F0.03156009379312876
sI1400
F0.01840428759230414
sI250
F0.0
sI1150
F0.06101843007451864
ssI1000
(dp22
I900
F0.3007198060302868
sI650
F0.009172118432662645
sI400
F0.15529197560707528
sI1300
F0.03662411142359454
sI1050
F0.10913951736721343
sI800
F0.4273319262583225
sI550
F0.026921587853881858
sI1450
F0.01713779884963525
sI300
F0.0
sI1200
F0.047432715644570654
sI950
F0.2105925722739569
sI700
F0.23984538346582693
sI450
F0.2295399547494959
sI1350
F0.028679586578568343
sI200
F0.0
sI1100
F0.08960515299915388
sI850
F0.3482728641467524
sI600
F0.015263131451042713
sI1500
F0.014987948955736746
sI350
F0.12061083110702604
sI1250
F0.04880087562150277
sI1000
F0.14806298473849522
sI750
F0.48175608085965854
sI500
F0.014606140773017695
sI1400
F0.02038715081535638
sI250
F0.0
sI1150
F0.07297862337214857
ssI750
(dp23
I900
F0.2789166185604748
sI650
F1.2287123416485841
sI400
F0.0629069687957738
sI1300
F0.03666405329205126
sI1050
F0.11897004568027839
sI800
F0.5456887154563296
sI550
F0.5784659065761198
sI1450
F0.017484198495033583
sI300
F0.36272187649671667
sI1200
F0.05089591220363343
sI950
F0.21971056394106958
sI700
F0.8786360487804743
sI450
F0.16168007573811105
sI1350
F0.026365454802811484
sI200
F0.0
sI1100
F0.09027463232978153
sI850
F0.3945072353660184
sI600
F1.3668123307076037
sI1500
F0.013759108513207214
sI350
F0.23115576742773591
sI1250
F0.04136011609800006
sI1000
F0.1571215922233038
sI750
F0.687721735260851
sI500
F0.07421413225808794
sI1400
F0.021254053819599793
sI250
F0.0
sI1150
F0.07537065866178781
ssI500
(dp24
I900
F0.3350955542116708
sI650
F1.5077545973907898
sI400
F1.2164220321144559
sI1300
F0.03566803594040774
sI1050
F0.13231579694372195
sI800
F0.6131648045883901
sI550
F3.2697937879461922
sI1450
F0.019241546187532117
sI300
F0.35697854474481083
sI1200
F0.05395759105863258
sI950
F0.24672217283757839
sI700
F1.0779720092427882
sI450
F4.972382941289212
sI1350
F0.03095197996945227
sI200
F0.0
sI1100
F0.10578728853124644
sI850
F0.3778993931030076
sI600
F2.153133327205406
sI1500
F0.013833371238128299
sI350
F0.0
sI1250
F0.04775670743487297
sI1000
F0.1691545857911452
sI750
F0.767254164399198
sI500
F4.192824585786008
sI1400
F0.020405335231635225
sI250
F0.0
sI1150
F0.07885497350293189
ssI1400
(dp25
I900
F0.01039180509449239
sI650
F0.035581935739824246
sI400
F0.27671183283314493
sI1300
F0.029740226215296914
sI1050
F0.09553340814287498
sI800
F0.0028465264297922654
sI550
F0.07173126742297325
sI1450
F0.01597423798198207
sI300
F0.0
sI1200
F0.04704792234165857
sI950
F0.06478886955971964
sI700
F0.0
sI450
F0.07391060895456109
sI1350
F0.0228028532015928
sI200
F0.0
sI1100
F0.09384642482737741
sI850
F0.0
sI600
F0.030678149237623294
sI1500
F0.01277056348142781
sI350
F0.13116248250124746
sI1250
F0.03747031978949609
sI1000
F0.09125605005193993
sI750
F0.01793944521364818
sI500
F0.09343677755368843
sI1400
F0.017197301909825605
sI250
F0.0
sI1150
F0.05497564894491679
ssI250
(dp26
I900
F0.31628171448741643
sI650
F1.6545904492819004
sI400
F14.644997546334269
sI1300
F0.039488421083631924
sI1050
F0.14236432377130864
sI800
F0.5888634247986708
sI550
F3.736180725669852
sI1450
F0.0180705503664089
sI300
F34.19013480863061
sI1200
F0.05693412432551349
sI950
F0.22759774915190265
sI700
F0.9445777318069842
sI450
F9.219923214745078
sI1350
F0.03145587948234197
sI200
F0.0
sI1100
F0.10520204322295071
sI850
F0.39569240202115585
sI600
F2.2185128532281357
sI1500
F0.013709549367493346
sI350
F22.664200269992808
sI1250
F0.04712256238238416
sI1000
F0.17607972982453743
sI750
F0.8152371946843217
sI500
F5.171414132737048
sI1400
F0.020276618274378745
sI250
F1.7824939810211902
sI1150
F0.0790402411800614
ssI1150
(dp27
I900
F0.2130498149191723
sI650
F0.008696845773145995
sI400
F0.16805337254313554
sI1300
F0.03100743167739022
sI1050
F0.10728590393318967
sI800
F0.1331536158399981
sI550
F0.046370665994474265
sI1450
F0.01768117909778845
sI300
F0.0
sI1200
F0.049410424450165275
sI950
F0.17186123625938485
sI700
F0.0
sI450
F0.027078512551355415
sI1350
F0.03179451481632728
sI200
F0.0
sI1100
F0.10624610141543851
sI850
F0.208782636452656
sI600
F0.0
sI1500
F0.012949551739647378
sI350
F0.1399247353355426
sI1250
F0.0363084523549513
sI1000
F0.1258470245387552
sI750
F0.015178104292402234
sI500
F0.03152572330861895
sI1400
F0.02067202683480147
sI250
F0.0
sI1150
F0.06922111652560602
ss.