(dp0
I900
(dp1
I2050
F0.008835965506259175
sI1800
F0.015255161189850035
sI1550
F0.025925874507211743
sI2450
F0.0037049491748626386
sI1300
F0.04605021540266767
sI2200
F0.005885348881661998
sI1050
F0.07336124732322187
sI1950
F0.01172305359776745
sI1700
F0.019003875850898105
sI1450
F0.03279359518684217
sI2350
F0.004366940804366309
sI1200
F0.05813084704564162
sI2100
F0.008713164543362257
sI1850
F0.01359877342583156
sI1600
F0.02335188658885547
sI2500
F0.003460345001204501
sI1350
F0.041415097198706514
sI2250
F0.006338692735145295
sI1100
F0.07166135287758119
sI2000
F0.009344906902960443
sI1750
F0.017397667460053664
sI1500
F0.02924727204333031
sI2400
F0.0037715888477390254
sI1250
F0.051223192816186106
sI2150
F0.007278929808778059
sI1000
F0.08911369465557595
sI1900
F0.01135013082756741
sI1650
F0.020207249907920513
sI1400
F0.036027358652638806
sI2300
F0.0053319537671677655
sI1150
F0.06593636711956614
ssI650
(dp2
I2050
F0.01390266399021449
sI1800
F0.02987292270952843
sI1550
F0.04759460508492897
sI2450
F0.0069983283322563984
sI1300
F0.09728064414422914
sI2200
F0.012095154807347097
sI1050
F0.16695481292151143
sI1950
F0.017940994595746176
sI1700
F0.03956636864774722
sI1450
F0.06161813241699348
sI2350
F0.007699187486891654
sI1200
F0.0963128397772224
sI2100
F0.014709338257729108
sI1850
F0.025504649100885096
sI1600
F0.039291648766202725
sI2500
F0.005543296366666915
sI1350
F0.07503437001579623
sI2250
F0.009573834190691213
sI1100
F0.1511326152860168
sI2000
F0.018042809013282788
sI1750
F0.02834259183257634
sI1500
F0.058362823693847515
sI2400
F0.007044060451488353
sI1250
F0.10021402462373968
sI2150
F0.012709392810174847
sI1000
F0.2330138758749255
sI1900
F0.021525794322374447
sI1650
F0.04028800716020893
sI1400
F0.06434589806764564
sI2300
F0.009832435945091573
sI1150
F0.12995751714357426
ssI400
(dp3
I2050
F0.030709473761752936
sI1800
F0.05047019470431316
sI1550
F0.08803724046364629
sI2450
F0.010845369801878607
sI1300
F0.18241405436143865
sI2200
F0.0206897926721091
sI1050
F0.4228901884892145
sI1950
F0.03650372126424656
sI1700
F0.0743639066843547
sI1450
F0.11657434921845997
sI2350
F0.014913621772472952
sI1200
F0.25831037569440163
sI2100
F0.027152002592140755
sI1850
F0.04866837293596762
sI1600
F0.08573702882630109
sI2500
F0.01038241089713769
sI1350
F0.16182335939633408
sI2250
F0.01952050179944965
sI1100
F0.3182189136185055
sI2000
F0.0315752585758309
sI1750
F0.060196654675274956
sI1500
F0.10427182914704676
sI2400
F0.013395833102883632
sI1250
F0.21157820951688242
sI2150
F0.023002876917342863
sI1000
F0.4738054278313994
sI1900
F0.03899188197373097
sI1650
F0.07503310269270609
sI1400
F0.12803787472810765
sI2300
F0.01550392591600575
sI1150
F0.2774401372375211
ssI1300
(dp4
I2050
F0.003993848753724063
sI1800
F0.006555645043846955
sI1550
F0.010877840932758837
sI2450
F0.0015289182313221598
sI1300
F0.017172841072780855
sI2200
F0.002376852741472021
sI1050
F0.030693716553260312
sI1950
F0.005306855702996027
sI1700
F0.008264749553093968
sI1450
F0.013334687884173222
sI2350
F0.0019172627981384135
sI1200
F0.02280776731233428
sI2100
F0.002954993533499949
sI1850
F0.005776006994435976
sI1600
F0.00960003286521245
sI2500
F0.0013597852582258605
sI1350
F0.015995539975619325
sI2250
F0.0021017408997988226
sI1100
F0.027618586200829184
sI2000
F0.003992829054550569
sI1750
F0.005870373018632915
sI1500
F0.012411540123457158
sI2400
F0.001799661908161241
sI1250
F0.018647522200596123
sI2150
F0.0026044225434682295
sI1000
F0.037171698582345356
sI1900
F0.004455457129509091
sI1650
F0.007888097181694595
sI1400
F0.014900703322517058
sI2300
F0.0021099416545404103
sI1150
F0.021431298532723474
ssI150
(dp5
I2050
F0.04740637254784609
sI1800
F0.09846079359372034
sI1550
F0.18447826020569724
sI2450
F0.018955078561755347
sI1300
F0.37910866874688565
sI2200
F0.03332090866533026
sI1050
F0.8366376386206408
sI1950
F0.06072044835796018
sI1700
F0.12280163917224528
sI1450
F0.2568170847294881
sI2350
F0.025459338662601628
sI1200
F0.49789901280358906
sI2100
F0.04546012187556667
sI1850
F0.08442964536248156
sI1600
F0.151971262818354
sI2500
F0.017454717819614978
sI1350
F0.32356463102008787
sI2250
F0.028926515070637135
sI1100
F0.6262962283903434
sI2000
F0.05698105331136775
sI1750
F0.09497753110234292
sI1500
F0.21355479254042728
sI2400
F0.024608844655108854
sI1250
F0.4582743247210388
sI2150
F0.043338323084642985
sI1000
F0.9808616975411362
sI1900
F0.06961748511110366
sI1650
F0.13868992442505587
sI1400
F0.30576128570604455
sI2300
F0.03001815138077474
sI1150
F0.5490518093115085
ssI1050
(dp6
I2050
F0.005693569943450618
sI1800
F0.011034685102884235
sI1550
F0.01980507141979322
sI2450
F0.002720423058751026
sI1300
F0.0355833773359907
sI2200
F0.004691379027232158
sI1050
F0.06146422781322536
sI1950
F0.007814913071442723
sI1700
F0.012634171989457467
sI1450
F0.019394660929759878
sI2350
F0.003212697209509941
sI1200
F0.043592119439238554
sI2100
F0.005615772506698633
sI1850
F0.010561667575594489
sI1600
F0.016659904260285668
sI2500
F0.0022706326115828073
sI1350
F0.03405215637395667
sI2250
F0.004139690706221753
sI1100
F0.05406416925223228
sI2000
F0.006936662259105082
sI1750
F0.012999078113925951
sI1500
F0.02078378518558285
sI2400
F0.0030190095890127765
sI1250
F0.03572097579510865
sI2150
F0.004968485043403933
sI1000
F0.06272580563496585
sI1900
F0.008700454851890556
sI1650
F0.017252630875715196
sI1400
F0.026085687675778152
sI2300
F0.003656115597863846
sI1150
F0.04765764398944801
ssI800
(dp7
I2050
F0.012065456809185244
sI1800
F0.020167712396137766
sI1550
F0.03615115471893226
sI2450
F0.004277629091573067
sI1300
F0.06032778198187998
sI2200
F0.0072903288648850685
sI1050
F0.11060846458955019
sI1950
F0.015143389931773457
sI1700
F0.02163833781980664
sI1450
F0.04633313545684242
sI2350
F0.005867725888820539
sI1200
F0.09000335982791201
sI2100
F0.010436133317715661
sI1850
F0.01518451725757446
sI1600
F0.029078859143979768
sI2500
F0.004442633681740492
sI1350
F0.05473345917118727
sI2250
F0.007081090082039745
sI1100
F0.08498589541748772
sI2000
F0.011443932769496705
sI1750
F0.01752669597382727
sI1500
F0.036996526689250776
sI2400
F0.005268145199097829
sI1250
F0.06439664223415276
sI2150
F0.008847124437898243
sI1000
F0.12395617020538319
sI1900
F0.015764479583504687
sI1650
F0.029482536384000824
sI1400
F0.052037333845546235
sI2300
F0.006632425060961686
sI1150
F0.10278197761520474
ssI550
(dp8
I2050
F0.01881823950430938
sI1800
F0.03493136696184543
sI1550
F0.06501135667621903
sI2450
F0.0084703728474521
sI1300
F0.11857157204775069
sI2200
F0.013192910022270127
sI1050
F0.23771524117764722
sI1950
F0.026158703443687426
sI1700
F0.04641870771818897
sI1450
F0.07606882481020152
sI2350
F0.009874323575987769
sI1200
F0.1570467667658495
sI2100
F0.016499330965119175
sI1850
F0.03149117266943931
sI1600
F0.058679545122435804
sI2500
F0.006931247890538558
sI1350
F0.10281005427335804
sI2250
F0.01285032582426105
sI1100
F0.23914168386315515
sI2000
F0.022237318115545274
sI1750
F0.04097156133807542
sI1500
F0.06779138646732195
sI2400
F0.008853078162564646
sI1250
F0.1425329683956516
sI2150
F0.01595407435777667
sI1000
F0.27728276290198856
sI1900
F0.030977070482872796
sI1650
F0.04827366277408294
sI1400
F0.10526877477577345
sI2300
F0.011998911494465919
sI1150
F0.17948816877634396
ssI1450
(dp9
I2050
F0.0028009148128668167
sI1800
F0.004440787589319052
sI1550
F0.006683255707935758
sI2450
F0.0011071038254851563
sI1300
F0.012824060678007114
sI2200
F0.0017437424388840946
sI1050
F0.02566495106913906
sI1950
F0.003044211090078498
sI1700
F0.0055232158597906455
sI1450
F0.009260511156559726
sI2350
F0.0014195538389777465
sI1200
F0.015768433144848663
sI2100
F0.002260074844068919
sI1850
F0.004268094732717846
sI1600
F0.00662471640638113
sI2500
F0.0009728228451796784
sI1350
F0.010506249046830366
sI2250
F0.0018507340833729847
sI1100
F0.015552954240543773
sI2000
F0.002915056611584043
sI1750
F0.004655205014031849
sI1500
F0.007840086353463036
sI2400
F0.0011408978774379683
sI1250
F0.014611364982686465
sI2150
F0.002407231780858393
sI1000
F0.02669850959965815
sI1900
F0.003674921633550925
sI1650
F0.006444067284988928
sI1400
F0.009174128457026682
sI2300
F0.0015412636452424538
sI1150
F0.016740914238690847
ssI300
(dp10
I2050
F0.03518359072653938
sI1800
F0.06913702257277976
sI1550
F0.12778651115301012
sI2450
F0.015456301820732923
sI1300
F0.2665778529299016
sI2200
F0.024835854359717704
sI1050
F0.5152920661542987
sI1950
F0.044003647265841724
sI1700
F0.09061928378087111
sI1450
F0.16056935289216487
sI2350
F0.018664184655327296
sI1200
F0.3229635665336733
sI2100
F0.03575828416882048
sI1850
F0.05981171365539935
sI1600
F0.10903391374161084
sI2500
F0.012755947334685885
sI1350
F0.2177002286475812
sI2250
F0.024464983177830062
sI1100
F0.4474555645896181
sI2000
F0.03924997497648629
sI1750
F0.07759752523780226
sI1500
F0.14946636489362006
sI2400
F0.015179278525567502
sI1250
F0.2721123074303288
sI2150
F0.029239761361699396
sI1000
F0.6231800925373173
sI1900
F0.05093915524787431
sI1650
F0.09459230935043861
sI1400
F0.18653020405815507
sI2300
F0.021251585231248937
sI1150
F0.4037777375481987
ssI1200
(dp11
I2050
F0.004489324558833649
sI1800
F0.007946742992128835
sI1550
F0.013559538942647881
sI2450
F0.002075327805608331
sI1300
F0.022804388422899592
sI2200
F0.0035189048934160055
sI1050
F0.04387739813249479
sI1950
F0.005348469340554378
sI1700
F0.00925395187080338
sI1450
F0.015699187418668898
sI2350
F0.002356683103959071
sI1200
F0.02948540618733335
sI2100
F0.004596139251432952
sI1850
F0.006266335639544288
sI1600
F0.011411168318032943
sI2500
F0.0016030719286515033
sI1350
F0.02298494604608651
sI2250
F0.002805886690666608
sI1100
F0.035192601223053045
sI2000
F0.004601651288086892
sI1750
F0.008758298897520054
sI1500
F0.01392184512756608
sI2400
F0.0021076375500794524
sI1250
F0.02409638550949177
sI2150
F0.003213131581393992
sI1000
F0.05140588848001865
sI1900
F0.006030928430210558
sI1650
F0.011011020449461112
sI1400
F0.017316332015045986
sI2300
F0.0027620508702292834
sI1150
F0.0343567382139821
ssI50
(dp12
I2050
F8.722376314387831e-07
sI1800
F2.3923424557801024e-06
sI1550
F6.230078425250044e-06
sI2450
F1.7358324031041793e-07
sI1300
F1.836683171885153e-05
sI2200
F4.689385814746488e-07
sI1050
F4.436475701081093e-05
sI1950
F1.3127797277343174e-06
sI1700
F3.711857263105029e-06
sI1450
F9.005509215882229e-06
sI2350
F2.2563768605622033e-07
sI1200
F2.4388318817620623e-05
sI2100
F7.256003130839083e-07
sI1850
F1.931715428013602e-06
sI1600
F5.183258752654812e-06
sI2500
F1.353180500034091e-07
sI1350
F1.5366255953512323e-05
sI2250
F3.687154506348389e-07
sI1100
F3.386439192089607e-05
sI2000
F9.81962273132386e-07
sI1750
F2.787145825783908e-06
sI1500
F7.38126390041513e-06
sI2400
F1.9129227129540848e-07
sI1250
F2.0265811302287534e-05
sI2150
F5.68077724994453e-07
sI1000
F5.872571796320803e-05
sI1900
F1.5670570244586175e-06
sI1650
F4.004102470269288e-06
sI1400
F1.1709954166887387e-05
sI2300
F3.261746691514197e-07
sI1150
F3.2988113051461384e-05
ssI950
(dp13
I2050
F0.007073252714384308
sI1800
F0.01308870391486547
sI1550
F0.024201451248137714
sI2450
F0.0030427879890825783
sI1300
F0.04662987354944623
sI2200
F0.005712760563038826
sI1050
F0.0829146826623659
sI1950
F0.008324748852709674
sI1700
F0.016323028278773202
sI1450
F0.03248775067401502
sI2350
F0.0039455719527267
sI1200
F0.05307666783188916
sI2100
F0.006212488882276659
sI1850
F0.012027629413256285
sI1600
F0.019083005741611973
sI2500
F0.00268966488342758
sI1350
F0.04122839872299004
sI2250
F0.00483487941831904
sI1100
F0.07101130555918148
sI2000
F0.008832227201985926
sI1750
F0.014598340848997067
sI1500
F0.02581828306566005
sI2400
F0.00332556469975677
sI1250
F0.046105647932174296
sI2150
F0.006212734669229415
sI1000
F0.0994835766866866
sI1900
F0.011114160556246346
sI1650
F0.019418269128337273
sI1400
F0.03833730656209131
sI2300
F0.004205773080661942
sI1150
F0.05368388585177515
ssI700
(dp14
I2050
F0.014750117212236487
sI1800
F0.021949280953685785
sI1550
F0.04779039577520068
sI2450
F0.006064348317457868
sI1300
F0.07312855184279843
sI2200
F0.009402069082033554
sI1050
F0.17640522840459938
sI1950
F0.018597366734380037
sI1700
F0.02932428487016597
sI1450
F0.04986068910908948
sI2350
F0.0067253701532789915
sI1200
F0.09687632994427432
sI2100
F0.011860730739391288
sI1850
F0.020192279924807897
sI1600
F0.04144983338357762
sI2500
F0.005395368816861769
sI1350
F0.07095012443828425
sI2250
F0.008765604295383568
sI1100
F0.11844887682008959
sI2000
F0.015353518770861309
sI1750
F0.028052653682354486
sI1500
F0.047620518700236675
sI2400
F0.006576384830006547
sI1250
F0.09975661416189745
sI2150
F0.011717998644087835
sI1000
F0.2035355196243861
sI1900
F0.020560779669804522
sI1650
F0.03490846470943026
sI1400
F0.06262430887905548
sI2300
F0.008828390362882863
sI1150
F0.09484018186854173
ssI450
(dp15
I2050
F0.02577354581571688
sI1800
F0.04080690827868195
sI1550
F0.08669953807624423
sI2450
F0.010041595960758114
sI1300
F0.16499526204290307
sI2200
F0.01721233449793567
sI1050
F0.3485905567863325
sI1950
F0.03223408397220827
sI1700
F0.058087744238932947
sI1450
F0.1139686436617675
sI2350
F0.013051945832510313
sI1200
F0.21844703287962666
sI2100
F0.023206536626999643
sI1850
F0.04043077017288945
sI1600
F0.07689591004982185
sI2500
F0.009506157911595653
sI1350
F0.14045853517921342
sI2250
F0.016177241266286054
sI1100
F0.29849343142740686
sI2000
F0.02844313293055326
sI1750
F0.055513316502483784
sI1500
F0.09924998081947711
sI2400
F0.011128964004061359
sI1250
F0.18436280063703236
sI2150
F0.019479737996278477
sI1000
F0.4061285892082214
sI1900
F0.03785202080470382
sI1650
F0.06722367324038367
sI1400
F0.12206687787733847
sI2300
F0.013236389313145436
sI1150
F0.2284720728601722
ssI1350
(dp16
I2050
F0.0033763068320705196
sI1800
F0.005974678290151754
sI1550
F0.01057875720052426
sI2450
F0.0013708080027708788
sI1300
F0.018198472346370665
sI2200
F0.0023989294392859854
sI1050
F0.027902889696232766
sI1950
F0.004042175352261006
sI1700
F0.0063114362114195365
sI1450
F0.011807758640535794
sI2350
F0.0016373902794548855
sI1200
F0.018647993246857866
sI2100
F0.0026151984487204306
sI1850
F0.004998617420663226
sI1600
F0.008317283347665395
sI2500
F0.0012662052807258907
sI1350
F0.012362762961339292
sI2250
F0.00215037644378805
sI1100
F0.02575274811360264
sI2000
F0.0036805843600438877
sI1750
F0.005610239055177652
sI1500
F0.010008130585856317
sI2400
F0.0017349279476910338
sI1250
F0.019009645396784056
sI2150
F0.002737524017127127
sI1000
F0.02539897385218077
sI1900
F0.004100367795228308
sI1650
F0.007762482489613435
sI1400
F0.012262619730792925
sI2300
F0.0018189024159701922
sI1150
F0.02116557769720051
ssI200
(dp17
I2050
F0.04123875962139412
sI1800
F0.07956026016756824
sI1550
F0.15527403036745996
sI2450
F0.01788546147270971
sI1300
F0.34180056424294086
sI2200
F0.0303679586086842
sI1050
F0.6223094590756683
sI1950
F0.060705339620501564
sI1700
F0.10366750233331473
sI1450
F0.20190237900878677
sI2350
F0.021326842187923304
sI1200
F0.4280843497286375
sI2100
F0.040643756276503726
sI1850
F0.0720680033563765
sI1600
F0.13786414772991787
sI2500
F0.015363213944108046
sI1350
F0.2746380336676938
sI2250
F0.02999527109610102
sI1100
F0.566342543445001
sI2000
F0.04725879314714877
sI1750
F0.10084613730580666
sI1500
F0.1667387902771005
sI2400
F0.018463680884241364
sI1250
F0.37813981576673195
sI2150
F0.03227459012901245
sI1000
F0.7838267086454426
sI1900
F0.05985515227429441
sI1650
F0.1307274698858435
sI1400
F0.2490554228395762
sI2300
F0.025119150603244145
sI1150
F0.5121567679189722
ssI1100
(dp18
I2050
F0.005689940893423676
sI1800
F0.010253561096015096
sI1550
F0.016125437046169304
sI2450
F0.0022262251314026623
sI1300
F0.03045767992934604
sI2200
F0.003346944869221935
sI1050
F0.05016352910855598
sI1950
F0.006147056640661567
sI1700
F0.012143965555979826
sI1450
F0.02109686008643056
sI2350
F0.003295951610881723
sI1200
F0.034463391637733425
sI2100
F0.004889394945959326
sI1850
F0.008294469149195884
sI1600
F0.015572845268093178
sI2500
F0.002273262206143801
sI1350
F0.02309562959320131
sI2250
F0.0036354912919529868
sI1100
F0.04999279489462989
sI2000
F0.007542933707763777
sI1750
F0.010778797612534379
sI1500
F0.01881222547946464
sI2400
F0.0027669912727899273
sI1250
F0.030781425746943772
sI2150
F0.004350660767420559
sI1000
F0.05216325796937009
sI1900
F0.006666094035658026
sI1650
F0.013528279754328609
sI1400
F0.0248021522984529
sI2300
F0.0033824983935706295
sI1150
F0.03533663941316543
ssI850
(dp19
I2050
F0.008905067298872452
sI1800
F0.017516581420945504
sI1550
F0.026274158457568565
sI2450
F0.003949344769038513
sI1300
F0.04185176611299593
sI2200
F0.006762889514861451
sI1050
F0.10729567876736136
sI1950
F0.013355554392997156
sI1700
F0.023541921155040245
sI1450
F0.043415529764522696
sI2350
F0.004888430214033983
sI1200
F0.06411609486690341
sI2100
F0.009067802127272366
sI1850
F0.013924995169989891
sI1600
F0.026075524406734427
sI2500
F0.0034945488115435026
sI1350
F0.04967407700765995
sI2250
F0.006311277358329042
sI1100
F0.09398490631798692
sI2000
F0.011738091556953278
sI1750
F0.0187507069230215
sI1500
F0.031868899237419604
sI2400
F0.0046086159834334015
sI1250
F0.06560990177652622
sI2150
F0.008232289832624608
sI1000
F0.120500476023002
sI1900
F0.01387541843509388
sI1650
F0.027515324070420857
sI1400
F0.04074715180857507
sI2300
F0.005312917301142594
sI1150
F0.08366144765140851
ssI600
(dp20
I2050
F0.017604963670752746
sI1800
F0.03201258663513507
sI1550
F0.054705557553230214
sI2450
F0.006907934704766302
sI1300
F0.115344312160158
sI2200
F0.013077862751541915
sI1050
F0.19740800249553522
sI1950
F0.020685760289354916
sI1700
F0.03948853512163911
sI1450
F0.07103039947436705
sI2350
F0.009197595798099131
sI1200
F0.12209216297242698
sI2100
F0.01589080406444284
sI1850
F0.02672639222751862
sI1600
F0.04870429544043607
sI2500
F0.006280319327145341
sI1350
F0.09679474078633482
sI2250
F0.011517465247116377
sI1100
F0.18503971347557663
sI2000
F0.018546977693361284
sI1750
F0.032770006314315356
sI1500
F0.06424168433958265
sI2400
F0.008617571196035748
sI1250
F0.10706574140292272
sI2150
F0.013582697372018181
sI1000
F0.24920375614900686
sI1900
F0.02492343774024609
sI1650
F0.045364181044400896
sI1400
F0.08948283162690357
sI2300
F0.009920659619333786
sI1150
F0.15129865095524717
ssI1500
(dp21
I2050
F0.002471977788706046
sI1800
F0.004128797671306072
sI1550
F0.005956971141716255
sI2450
F0.001059308480658938
sI1300
F0.010535580473788586
sI2200
F0.0015941766784237318
sI1050
F0.016768162551985735
sI1950
F0.0026594817933158115
sI1700
F0.004351894864485291
sI1450
F0.007328321820553724
sI2350
F0.0011702209766908814
sI1200
F0.013551270338540998
sI2100
F0.001906213578648807
sI1850
F0.003471294405276992
sI1600
F0.005569178200055828
sI2500
F0.0009720798675662378
sI1350
F0.009654840838569097
sI2250
F0.0013778552787347448
sI1100
F0.018870739069190328
sI2000
F0.002566843852965444
sI1750
F0.0044678642856934864
sI1500
F0.007827053424021648
sI2400
F0.0011815597856531315
sI1250
F0.010881107914536416
sI2150
F0.0021365803663137032
sI1000
F0.017260154426669873
sI1900
F0.003124401305527824
sI1650
F0.004858063107259777
sI1400
F0.009370348518739502
sI2300
F0.001316387560881232
sI1150
F0.016638048650015717
ssI350
(dp22
I2050
F0.03346205430446711
sI1800
F0.05947057464411781
sI1550
F0.10487441076341347
sI2450
F0.01293967908515916
sI1300
F0.23398182212440832
sI2200
F0.0226960009219158
sI1050
F0.49090605038021984
sI1950
F0.04069459198136052
sI1700
F0.07884034813039555
sI1450
F0.1465759258879934
sI2350
F0.01626745307611246
sI1200
F0.2914154014915736
sI2100
F0.03265731970994917
sI1850
F0.06180527761721256
sI1600
F0.08751528462449219
sI2500
F0.011745469467749702
sI1350
F0.18411873918979935
sI2250
F0.0213496874533441
sI1100
F0.38360496857831405
sI2000
F0.03757964138910277
sI1750
F0.07407017760031522
sI1500
F0.1297664718128712
sI2400
F0.014223648571949871
sI1250
F0.27467544629195295
sI2150
F0.025397566780518202
sI1000
F0.5331679718772198
sI1900
F0.044100274449469
sI1650
F0.08983035136942678
sI1400
F0.16593830156558093
sI2300
F0.017932653734419487
sI1150
F0.34281157207310914
ssI1250
(dp23
I2050
F0.0038585070684214007
sI1800
F0.007018742116978399
sI1550
F0.012483191877984946
sI2450
F0.001745856798730786
sI1300
F0.02237141059834862
sI2200
F0.0032857598086965235
sI1050
F0.0331774180547685
sI1950
F0.005009936034281831
sI1700
F0.00870091263550893
sI1450
F0.013902764614722247
sI2350
F0.002158104094695598
sI1200
F0.02448704744630353
sI2100
F0.0037031241280968217
sI1850
F0.0059759924427138286
sI1600
F0.010150974817016257
sI2500
F0.0015663200002692334
sI1350
F0.02132379628720664
sI2250
F0.0021749203870527157
sI1100
F0.028318696900622532
sI2000
F0.004765406961550858
sI1750
F0.008581403283885684
sI1500
F0.013162088224916057
sI2400
F0.0020981519773173754
sI1250
F0.022404415915359424
sI2150
F0.003089521581299751
sI1000
F0.03182595589672571
sI1900
F0.004777261562554382
sI1650
F0.008383285942252653
sI1400
F0.016261202313454872
sI2300
F0.002397866000292918
sI1150
F0.02893354294834751
ssI100
(dp24
I2050
F9.196611682644666e-07
sI1800
F2.418998060512022e-06
sI1550
F6.274207127562388e-06
sI2450
F1.80273838518935e-07
sI1300
F1.5622980989196997e-05
sI2200
F4.646469472670236e-07
sI1050
F4.1652729966771505e-05
sI1950
F1.3366228593850771e-06
sI1700
F3.392083623236977e-06
sI1450
F9.607863144531404e-06
sI2350
F2.463872939273613e-07
sI1200
F2.335663252283257e-05
sI2100
F7.049031287047599e-07
sI1850
F1.8482005494086999e-06
sI1600
F5.206472627800399e-06
sI2500
F1.4841868748414548e-07
sI1350
F1.3929160469930804e-05
sI2250
F4.051542755262918e-07
sI1100
F3.267088783583404e-05
sI2000
F1.1223510692667287e-06
sI1750
F2.977384795131573e-06
sI1500
F7.835554202481516e-06
sI2400
F2.0186060028492988e-07
sI1250
F2.1089278510167864e-05
sI2150
F5.611925124441995e-07
sI1000
F4.8993612408019576e-05
sI1900
F1.5959323645641287e-06
sI1650
F4.413514367879567e-06
sI1400
F1.076680237400323e-05
sI2300
F2.982881008820005e-07
sI1150
F3.0379440286009645e-05
ssI1000
(dp25
I2050
F0.00605055163981409
sI1800
F0.011856060020695433
sI1550
F0.02416006826383727
sI2450
F0.0033725784764263027
sI1300
F0.03431514977245026
sI2200
F0.005427102311724584
sI1050
F0.06347211770960674
sI1950
F0.008028206680860855
sI1700
F0.01511676924252573
sI1450
F0.02684424141869522
sI2350
F0.0034657735090756
sI1200
F0.046541663104317024
sI2100
F0.0071638284607360705
sI1850
F0.012103931584441197
sI1600
F0.016700216517457823
sI2500
F0.002690378871431481
sI1350
F0.03327308012253887
sI2250
F0.004573090218993235
sI1100
F0.05917040931890729
sI2000
F0.00610690381506288
sI1750
F0.013564218777666379
sI1500
F0.02471930623196905
sI2400
F0.003461413739991137
sI1250
F0.037653862654651676
sI2150
F0.004764970263155999
sI1000
F0.08329036825117526
sI1900
F0.00941842610789324
sI1650
F0.016582790365417936
sI1400
F0.03279426342964055
sI2300
F0.004391382233630799
sI1150
F0.052022983208245555
ssI750
(dp26
I2050
F0.013027255437507242
sI1800
F0.02194414172542005
sI1550
F0.04159716944017899
sI2450
F0.004927307643852133
sI1300
F0.052670109784202265
sI2200
F0.009307451796699858
sI1050
F0.12889051064540136
sI1950
F0.015967261238702943
sI1700
F0.028700806065646747
sI1450
F0.043842729622487454
sI2350
F0.0061483828814565345
sI1200
F0.09996401100140463
sI2100
F0.01024830530700076
sI1850
F0.0208329249553864
sI1600
F0.03411024801086385
sI2500
F0.004906553737241161
sI1350
F0.05398696171966262
sI2250
F0.007771255363722727
sI1100
F0.11698429109271212
sI2000
F0.013619717984261785
sI1750
F0.02411710140167993
sI1500
F0.040575824650511336
sI2400
F0.005580528695974179
sI1250
F0.08438729889652583
sI2150
F0.00878242406520268
sI1000
F0.16651979574534814
sI1900
F0.017534630885140786
sI1650
F0.029399670242549827
sI1400
F0.05344484593637457
sI2300
F0.00656548999678967
sI1150
F0.0993013763664239
ssI500
(dp27
I2050
F0.022666184801496726
sI1800
F0.03968638984419389
sI1550
F0.0732962109150525
sI2450
F0.008531516808608286
sI1300
F0.14715070132273458
sI2200
F0.01732303089641856
sI1050
F0.2919415556903714
sI1950
F0.028380554871025077
sI1700
F0.05054303388584594
sI1450
F0.0847416385572727
sI2350
F0.010746104866461971
sI1200
F0.1858719721866458
sI2100
F0.020223513870653756
sI1850
F0.03593274151840952
sI1600
F0.06719044858901876
sI2500
F0.008291436765140289
sI1350
F0.1097140500728101
sI2250
F0.014600350107716834
sI1100
F0.2511735887399951
sI2000
F0.023747817521097888
sI1750
F0.04544997824351635
sI1500
F0.08636867247690957
sI2400
F0.010406244576705376
sI1250
F0.1588549101196836
sI2150
F0.0190014814484525
sI1000
F0.3459784038925665
sI1900
F0.034023109238702054
sI1650
F0.05465407801412794
sI1400
F0.10436841915619018
sI2300
F0.012174960938233188
sI1150
F0.19626709684972796
ssI1400
(dp28
I2050
F0.002967713947990695
sI1800
F0.004811884050869499
sI1550
F0.007407088887911378
sI2450
F0.0012310079889155418
sI1300
F0.014345216922589988
sI2200
F0.0022604806239968473
sI1050
F0.020938728205374985
sI1950
F0.00334475419377119
sI1700
F0.006519102517585579
sI1450
F0.010282491153401902
sI2350
F0.001429566786078134
sI1200
F0.017667305857100756
sI2100
F0.002588225253606799
sI1850
F0.004120250057084865
sI1600
F0.008203179014074224
sI2500
F0.0011563996698695743
sI1350
F0.014532004911346293
sI2250
F0.001798739532203256
sI1100
F0.022213939788533435
sI2000
F0.002925288367238021
sI1750
F0.005751143839091636
sI1500
F0.008714322225494018
sI2400
F0.0015075874498905047
sI1250
F0.014728491675563221
sI2150
F0.0024819827600440904
sI1000
F0.02713746920674148
sI1900
F0.003887945631214365
sI1650
F0.0067565380423205345
sI1400
F0.010227587784785658
sI2300
F0.0016863472501935717
sI1150
F0.020271585582934074
ssI250
(dp29
I2050
F0.04080421517803722
sI1800
F0.0700605524208234
sI1550
F0.13785103904068888
sI2450
F0.014959899982099976
sI1300
F0.2797646718905977
sI2200
F0.02857773278351479
sI1050
F0.5919155714669484
sI1950
F0.05156228555752901
sI1700
F0.08883355253863671
sI1450
F0.16920140320249874
sI2350
F0.02011276950439618
sI1200
F0.38046729726199435
sI2100
F0.03637862731624577
sI1850
F0.05896497916545425
sI1600
F0.12390754449216754
sI2500
F0.014885135109774981
sI1350
F0.2514971003146652
sI2250
F0.027819199333283272
sI1100
F0.5361392689710178
sI2000
F0.040226175432394984
sI1750
F0.09269182176353677
sI1500
F0.17456573129702707
sI2400
F0.01783061307924571
sI1250
F0.3446880773205241
sI2150
F0.032470790879321136
sI1000
F0.6869990522081859
sI1900
F0.06082127679512134
sI1650
F0.11200837773191219
sI1400
F0.20877135437782093
sI2300
F0.022976338341450853
sI1150
F0.4440252344000226
ssI1150
(dp30
I2050
F0.004581400279304336
sI1800
F0.008988568979261894
sI1550
F0.013638953470936868
sI2450
F0.001984779922048403
sI1300
F0.024294709125697
sI2200
F0.0037108396423908697
sI1050
F0.05037016501169046
sI1950
F0.006313508590429503
sI1700
F0.011813720394094139
sI1450
F0.019393217971515466
sI2350
F0.002701829706318498
sI1200
F0.03373994098398861
sI2100
F0.0044016108611089075
sI1850
F0.008314858965286461
sI1600
F0.013732238628170208
sI2500
F0.0017775326822496856
sI1350
F0.024274384198182602
sI2250
F0.0029720009720742868
sI1100
F0.04499865967202187
sI2000
F0.005538702776680118
sI1750
F0.009660603027398549
sI1500
F0.016008227016149266
sI2400
F0.0022006339368944626
sI1250
F0.0289015681341388
sI2150
F0.00409675570666592
sI1000
F0.04727435816201863
sI1900
F0.006305894650490047
sI1650
F0.011847839492906832
sI1400
F0.019160822100002618
sI2300
F0.002807764457927522
sI1150
F0.03522831152212214
ss.