(dp0
I2050
(dp1
I900
F0.0
sI1800
F7.719967508662227e-07
sI10
F9.53783719012243e-07
sI400
F0.0
sI1300
F8.015459290998917e-07
sI150
F0.0
sI25
F0.0
sI1950
F0.0
sI800
F2.5487753882559324e-06
sI1700
F0.0
sI300
F8.709006225570618e-07
sI1200
F1.679149345194002e-06
sI50
F1.2465354989026608e-06
sI1850
F0.0
sI700
F6.58287981586478e-07
sI1600
F1.8409310981049656e-06
sI200
F1.3073496146433414e-06
sI1100
F0.0
sI2000
F5.170651563811006e-07
sI2040
F1.0646275310512622e-06
sI1750
F1.8811123051580948e-06
sI600
F6.154343832940045e-07
sI1500
F9.113342059257064e-07
sI100
F2.5229594810491276e-06
sI1000
F9.152892117358822e-07
sI2025
F7.483432365706432e-07
sI1900
F0.0
sI500
F4.15140699898491e-06
sI1400
F1.8618443185266573e-06
ssI900
(dp2
I800
F0.00043674565230447627
sI200
F0.00029872172369656
sI10
F6.166805767283407e-06
sI300
F0.0006318547766858898
sI400
F0.0004657479561798357
sI500
F0.0005129699484364426
sI600
F0.0006641768982177192
sI890
F0.0010731296979181917
sI700
F0.00022470558442158484
ssI1800
(dp3
I900
F4.946223555545235e-07
sI10
F2.602771026184657e-06
sI1550
F0.0
sI400
F3.385494402612955e-06
sI1300
F1.693217217143754e-06
sI150
F0.0
sI25
F3.5626693074961046e-06
sI800
F1.6792537072831032e-06
sI1700
F0.0
sI300
F1.945482758244808e-06
sI1200
F0.0
sI50
F0.0
sI700
F3.619895264651688e-06
sI1600
F1.3580905643424718e-06
sI200
F2.8294324451120098e-06
sI1100
F1.9923933589870805e-06
sI1750
F7.367590138347675e-06
sI600
F1.590612118077621e-06
sI1500
F6.216731255512794e-06
sI100
F2.8380413986462135e-06
sI1000
F2.99101664153063e-06
sI1775
F2.5038318241356234e-06
sI1650
F5.303736118869091e-06
sI500
F3.884473484084685e-06
sI1400
F3.067298588572719e-06
sI1790
F0.0
ssI1550
(dp4
I900
F5.046546749370063e-06
sI10
F0.0
sI400
F1.7624298779194374e-05
sI1300
F9.383394411065798e-06
sI150
F6.596527590244387e-06
sI25
F6.344756316590889e-06
sI800
F1.2315829906485411e-05
sI1450
F3.2988476021347465e-05
sI300
F1.4225811219678498e-05
sI1540
F2.4209528332681723e-05
sI1200
F2.944713952780743e-05
sI50
F0.0
sI700
F2.0292671125607718e-07
sI1350
F1.6741977302215125e-05
sI200
F0.0
sI1100
F0.0
sI600
F7.814781145069806e-06
sI1500
F3.128763569080654e-05
sI1250
F0.0
sI100
F8.228216812005386e-06
sI1000
F0.0
sI500
F0.0
sI1525
F3.950354264778934e-05
sI1400
F6.834177927525288e-06
ssI2450
(dp5
I900
F3.064575277054968e-07
sI1800
F5.754869679701025e-08
sI10
F0.0
sI400
F2.3355433273706289e-07
sI1300
F6.550251139698253e-08
sI150
F0.0
sI2200
F0.0
sI25
F0.0
sI800
F0.0
sI1700
F0.0
sI300
F0.0
sI2350
F1.2755376497010913e-07
sI1200
F0.0
sI2440
F1.7658715398816385e-07
sI50
F0.0
sI2100
F0.0
sI700
F1.4459704210167336e-07
sI1600
F2.4507948563436003e-07
sI200
F1.5910491419135403e-07
sI2250
F3.087775599844988e-07
sI1100
F1.251416491953346e-07
sI2000
F0.0
sI600
F2.8443905479716156e-08
sI1500
F1.4045028876469232e-07
sI2400
F3.4245380003400416e-07
sI100
F6.569286904886024e-08
sI2150
F4.0217468602455693e-07
sI1000
F3.086264875815954e-07
sI1900
F1.310162995934224e-07
sI500
F9.118838189079754e-08
sI1400
F0.0
sI2425
F1.763707380962379e-07
sI2300
F2.0688970946999913e-07
ssI1300
(dp6
I800
F9.2616748929718e-06
sI1200
F0.0001943679820959765
sI1250
F6.430312861675297e-05
sI100
F7.12910693626441e-05
sI200
F8.684643400802471e-05
sI1100
F0.00013892209366644828
sI10
F0.0
sI300
F2.994519061299654e-05
sI400
F5.040671893375475e-05
sI1000
F0.00014669792616760026
sI50
F0.0
sI500
F5.4796176706168234e-05
sI1290
F4.31383463759719e-05
sI150
F0.0
sI600
F6.720117816262966e-05
sI25
F0.0
sI900
F2.796052508071829e-05
sI1275
F1.7720674569239802e-05
sI700
F5.134123895284332e-05
sI1050
F0.00015822467668287582
sI1150
F0.00010777985192912746
ssI2200
(dp7
I2050
F6.820441324095873e-07
sI900
F4.775811668590214e-07
sI1800
F0.0
sI10
F5.054860991244454e-07
sI2190
F1.1038633581542184e-06
sI400
F0.0
sI1300
F0.0
sI150
F0.0
sI25
F0.0
sI1950
F7.072385304127602e-07
sI800
F5.337378886532148e-07
sI1700
F1.917100736280795e-07
sI300
F5.977372174031361e-07
sI1200
F6.344895818919935e-07
sI50
F0.0
sI2100
F0.0
sI700
F1.0040895696063164e-06
sI1600
F7.859098093354729e-07
sI200
F3.4624695716629257e-07
sI1100
F4.5851916388386733e-07
sI2000
F3.0837336047751134e-07
sI600
F5.633255675945258e-07
sI1500
F5.759369735866582e-07
sI100
F0.0
sI2150
F5.968636938101565e-07
sI1000
F5.591216345967746e-07
sI1900
F1.163779365950607e-06
sI500
F0.0
sI1400
F0.0
sI2175
F0.0
ssI1050
(dp8
I800
F0.000227113155185726
sI1025
F0.0004276481457199374
sI100
F0.0002706941654209034
sI950
F0.00018715895932087186
sI1040
F0.000245010467012222
sI200
F0.00021431667663658185
sI10
F0.0
sI300
F0.00027666355573561596
sI850
F0.00024067236492861574
sI750
F0.00010727031337460297
sI400
F0.0001585770643534549
sI1000
F0.0002664284733301644
sI50
F6.34269814985923e-05
sI500
F0.00027625826548754843
sI150
F0.00014023470705533113
sI600
F0.00022201740145204812
sI25
F0.0
sI900
F0.0001332474837677142
sI700
F0.0003528725363228603
ssI1950
(dp9
I900
F0.0
sI1925
F2.9956743967341424e-06
sI1800
F3.203893413173831e-06
sI10
F1.5800267339782968e-06
sI400
F0.0
sI1300
F1.0351616730351845e-06
sI150
F7.525281940371108e-07
sI25
F8.730257005193964e-07
sI800
F6.53423813694215e-07
sI1700
F5.115477686461905e-07
sI300
F1.0191551640211135e-06
sI1200
F2.2410771524105875e-06
sI50
F0.0
sI1850
F1.8448934815976513e-06
sI700
F3.0840887473045467e-06
sI1600
F0.0
sI200
F2.813363740723631e-06
sI1100
F1.9027809145636797e-06
sI1750
F1.6400290540143266e-06
sI600
F3.086149293934313e-06
sI1500
F3.7026006948038636e-06
sI100
F8.813706222727974e-07
sI1000
F1.1028329778218396e-06
sI1900
F2.1126477737425682e-06
sI1650
F2.5674991744410197e-06
sI500
F9.456371113203522e-07
sI1400
F1.9539584784627796e-06
sI1940
F8.366978026490514e-07
ssI800
(dp10
I200
F0.0005254394548708341
sI10
F0.0
sI300
F0.00026320066968985484
sI400
F0.0014953035873931054
sI500
F0.0019489356010093768
sI790
F0.0023921115867675557
sI600
F0.0016483661141251905
sI700
F0.002644254442566999
ssI1700
(dp11
I900
F8.648730904937738e-06
sI10
F2.315878401713169e-06
sI1675
F1.977618733963577e-06
sI1550
F1.2977272996483956e-05
sI400
F1.1682031914003488e-05
sI1300
F2.012775574428217e-06
sI150
F4.1162548327328323e-07
sI25
F0.0
sI1690
F1.0139979844730072e-05
sI800
F0.0
sI1450
F1.126709844050121e-05
sI300
F0.0
sI1200
F1.1251862009191438e-05
sI50
F0.0
sI700
F1.0831431786991804e-05
sI1600
F1.2779913843328713e-05
sI200
F1.2837263443355502e-05
sI1100
F4.798795102687886e-06
sI600
F8.575302202555383e-06
sI1500
F3.1653314544184093e-06
sI100
F3.950498190799389e-06
sI1000
F6.479567673090133e-06
sI1650
F1.3672911994664652e-05
sI500
F0.0
sI1400
F0.0
ssI1450
(dp12
I900
F1.551452419668868e-05
sI10
F0.0
sI400
F3.1241324360899544e-05
sI1425
F0.0001220263587219567
sI1300
F0.0
sI150
F2.117003770645991e-05
sI25
F0.0
sI800
F1.499693386222654e-05
sI300
F0.0
sI1200
F2.7005126514151463e-05
sI50
F0.0
sI700
F1.7328925348123133e-05
sI1440
F3.486833859607154e-05
sI1350
F1.5092625956568267e-05
sI200
F2.828542843572696e-05
sI1100
F9.579177575868397e-06
sI600
F1.333449573973156e-05
sI1250
F3.4776432329638046e-05
sI100
F0.0
sI1000
F9.786104834820643e-06
sI500
F2.9143649281836963e-05
sI1400
F4.7804205766975634e-05
sI1150
F0.0
ssI2350
(dp13
I2050
F1.3830376443541523e-07
sI900
F2.4515427344570904e-07
sI1800
F3.3356094144322873e-07
sI10
F0.0
sI400
F0.0
sI1300
F2.9610570798071085e-07
sI2325
F1.9364232107097875e-07
sI150
F4.4073848466567887e-07
sI2200
F0.0
sI25
F0.0
sI800
F2.6025295618754076e-07
sI1700
F2.1338966910440681e-07
sI300
F0.0
sI1200
F1.3223342394823614e-07
sI50
F1.5901511747797577e-07
sI2100
F2.466780012736052e-07
sI700
F2.2423078075018356e-07
sI1600
F6.334178763441245e-07
sI200
F1.3253134168670616e-07
sI2250
F0.0
sI1100
F0.0
sI2000
F2.108012176334778e-07
sI600
F1.6317792207502982e-07
sI2340
F2.9719209945247925e-07
sI1500
F1.401102204247603e-07
sI100
F0.0
sI2150
F0.0
sI1000
F2.897915953593567e-07
sI1900
F2.6929025879612577e-07
sI500
F2.4862939426142226e-07
sI1400
F1.1388378466267655e-10
sI2300
F0.0
ssI1200
(dp14
I800
F7.404910670160501e-05
sI100
F5.431148041941633e-05
sI950
F3.722838984741201e-05
sI1190
F0.00027005872162204136
sI200
F1.9844185001719e-06
sI1100
F0.0001098346141327049
sI10
F0.0
sI300
F0.00015955538786526145
sI400
F2.396624689577445e-05
sI1000
F0.00011028730376560332
sI50
F0.0
sI500
F6.263613629182856e-05
sI150
F8.107389671175719e-05
sI1175
F0.0001238083741279764
sI600
F7.829328349936467e-05
sI25
F4.2608158713715194e-05
sI900
F0.0001304017184627788
sI700
F7.102799103501043e-05
sI1050
F0.0001168822982660826
sI1150
F0.00012121448858344223
ssI2100
(dp15
I2050
F2.2768758275941727e-06
sI900
F0.0
sI1800
F8.458327188577458e-07
sI10
F0.0
sI400
F1.6666877578794828e-06
sI1300
F0.0
sI150
F2.2470299823427057e-06
sI25
F0.0
sI2075
F1.6870048304930247e-06
sI1950
F0.0
sI800
F0.0
sI1700
F1.3839567911357094e-06
sI2090
F1.219867926137122e-06
sI300
F0.0
sI1200
F0.0
sI50
F0.0
sI1850
F8.824205151702538e-07
sI700
F8.878432481094679e-07
sI1600
F0.0
sI200
F7.546070086053928e-07
sI1100
F0.0
sI2000
F0.0
sI600
F0.0
sI1500
F0.0
sI100
F0.0
sI1000
F2.9063219440581043e-07
sI1900
F0.0
sI500
F1.1136121152838336e-06
sI1400
F3.415612551384943e-06
ssI1850
(dp16
I900
F0.0
sI1800
F2.3200104088715764e-06
sI10
F0.0
sI1550
F4.182852919069329e-06
sI400
F1.9214804463921578e-06
sI1300
F4.445745740768532e-06
sI150
F1.3192546256160427e-06
sI25
F0.0
sI800
F1.2248615889082674e-06
sI1825
F1.414835968919354e-06
sI1700
F3.4112852851016327e-06
sI300
F1.743639770658127e-06
sI1200
F0.0
sI50
F0.0
sI700
F2.8528087431860725e-06
sI1600
F1.2926961882190894e-06
sI200
F2.499454194411973e-06
sI1100
F1.8510703076175028e-06
sI1750
F1.1986842783843069e-06
sI600
F2.440549170020927e-06
sI1500
F3.846602930658785e-06
sI1840
F6.31978847110933e-09
sI100
F0.0
sI1000
F1.8562479864973607e-06
sI1650
F0.0
sI500
F1.2312290912704294e-06
sI1400
F9.1974491395616e-07
ssI1600
(dp17
I900
F6.784439437590299e-06
sI10
F6.737984058625229e-06
sI1550
F0.0
sI400
F5.9540730457065015e-06
sI1300
F6.054684170276807e-06
sI150
F5.35574631781525e-06
sI25
F0.0
sI800
F0.0
sI1575
F1.4110849879286022e-05
sI1450
F4.490441649815747e-06
sI300
F0.0
sI1200
F1.706136594426733e-05
sI50
F0.0
sI1590
F1.53834154295336e-05
sI700
F1.5104672634301017e-05
sI1350
F1.2891302872873729e-05
sI200
F1.0648990396084175e-05
sI1100
F1.5371862443028854e-05
sI600
F0.0
sI1500
F6.09321834306828e-06
sI100
F2.2399160245205386e-06
sI1000
F1.4119872625078233e-05
sI500
F4.367016937576097e-06
sI1400
F1.519036734418663e-05
ssI2500
(dp18
I900
F0.0
sI1800
F0.0
sI10
F0.0
sI400
F1.7958010161626855e-07
sI2450
F1.0622813063518704e-07
sI1300
F1.6988145611641179e-07
sI150
F2.517777432677608e-07
sI2200
F0.0
sI25
F0.0
sI800
F0.0
sI1700
F4.85654493225097e-08
sI2475
F0.0
sI300
F3.6062413923054473e-07
sI2350
F0.0
sI1200
F0.0
sI50
F0.0
sI2100
F0.0
sI2490
F2.946592624500532e-07
sI700
F1.9647638460272075e-07
sI1600
F0.0
sI200
F1.0612510780091354e-07
sI2250
F0.0
sI1100
F3.4759695744710543e-07
sI2000
F0.0
sI600
F0.0
sI1500
F2.3347228263287782e-07
sI2400
F3.412425088497273e-08
sI100
F1.0987691132717111e-07
sI1000
F0.0
sI1900
F9.882316036732322e-08
sI500
F1.1042253948793429e-07
sI1400
F7.216713214680988e-08
sI2300
F1.2272645361620097e-07
ssI1350
(dp19
I900
F4.365124212451039e-05
sI10
F0.0
sI400
F4.914386324768871e-05
sI1300
F2.5691051970767993e-05
sI150
F2.529789242516442e-05
sI25
F0.0
sI1050
F5.896016174522805e-05
sI800
F1.3924666220754002e-05
sI300
F2.7779607119516942e-05
sI1325
F5.2120691167263135e-05
sI1200
F8.011157462598969e-05
sI50
F0.0
sI1340
F2.1304556414126753e-05
sI200
F0.0
sI1100
F1.4611522686163522e-05
sI600
F2.5508617160596706e-05
sI1250
F2.5288387724664074e-05
sI100
F2.633128908017084e-05
sI1000
F4.067537230255931e-05
sI700
F2.2206103953090843e-05
sI500
F4.256950153777527e-05
sI1150
F4.557354501100394e-05
ssI2250
(dp20
I2240
F1.437978968982472e-06
sI2050
F3.650450686210655e-07
sI900
F0.0
sI1800
F4.2119959117509673e-07
sI10
F3.478203300779197e-07
sI400
F5.910053354926521e-07
sI1300
F4.48643197730587e-07
sI150
F0.0
sI2200
F1.0490903047413658e-06
sI25
F0.0
sI1950
F3.958556738080237e-07
sI800
F0.0
sI1700
F2.038839702761286e-07
sI300
F0.0
sI1200
F4.346444410194764e-07
sI2225
F0.0
sI50
F0.0
sI2100
F2.910541310410209e-07
sI700
F0.0
sI1600
F1.8688601277656318e-07
sI200
F0.0
sI1100
F1.1119581969376933e-06
sI2000
F8.29824222597046e-07
sI600
F6.917638646142765e-07
sI1500
F9.086004612068568e-07
sI100
F4.2198964132394225e-07
sI2150
F0.0
sI1000
F5.010459988780984e-09
sI1900
F0.0
sI500
F7.734266501914892e-07
sI1400
F0.0
ssI1100
(dp21
I800
F0.00028381464737609004
sI1090
F0.00023433880547687094
sI100
F0.00011088382092609018
sI950
F9.602787916697794e-05
sI200
F0.00010771123682086129
sI10
F2.6451905356205364e-05
sI300
F0.00013073074697222273
sI850
F0.00025472492640665273
sI400
F7.785596663172615e-05
sI1000
F0.00014813887925708795
sI50
F3.1837156415496786e-05
sI1075
F0.00021085558377099256
sI500
F0.00023645499499731
sI150
F0.000129077737444997
sI600
F0.00026362461903576065
sI25
F0.0
sI900
F5.775558600920462e-05
sI700
F0.0002513668818722922
sI1050
F0.00032205640578583346
ssI2000
(dp22
I900
F1.030038585456075e-06
sI1800
F1.6552797666596931e-06
sI10
F0.0
sI400
F0.0
sI1300
F0.0
sI150
F0.0
sI25
F0.0
sI1950
F4.1453308733135306e-07
sI800
F0.0
sI1700
F0.0
sI300
F3.6840906077928046e-06
sI1200
F1.351030536149145e-06
sI50
F0.0
sI1975
F0.0
sI1850
F0.0
sI700
F0.0
sI1600
F1.0591427833353643e-06
sI1990
F1.06910418141717e-06
sI200
F1.592095017692214e-06
sI1100
F1.005708901032668e-06
sI1750
F1.5936441726705837e-06
sI600
F0.0
sI1500
F1.5951583463839438e-06
sI100
F1.2157178524749562e-06
sI1000
F0.0
sI1900
F4.391343594288098e-06
sI500
F1.0847459574923238e-06
sI1400
F0.0
ssI1750
(dp23
I900
F0.0
sI10
F1.2481388460465168e-06
sI1550
F4.257919149270416e-06
sI400
F2.6368630018078387e-06
sI1300
F1.0581899199215373e-05
sI150
F2.5381809513105085e-06
sI25
F0.0
sI800
F2.3532974831137665e-06
sI1700
F4.6633529642248374e-06
sI1450
F0.0
sI300
F4.4086370278535155e-06
sI1200
F1.1920748052694093e-05
sI50
F0.0
sI700
F1.515092875088935e-06
sI1725
F6.999089164646693e-06
sI1600
F1.125850881571592e-05
sI200
F1.0007207699025995e-05
sI1740
F2.324850724028021e-06
sI1100
F0.0
sI600
F1.963358489292003e-06
sI1500
F2.638995977414043e-06
sI100
F0.0
sI1000
F3.982685628034052e-06
sI1650
F2.9956795220575076e-06
sI500
F2.9233647811366716e-06
sI1400
F2.631333874064735e-06
ssI1500
(dp24
I900
F4.873356220368979e-06
sI10
F1.0011161225203758e-05
sI400
F1.1174321323644365e-05
sI1300
F4.09024666170157e-05
sI150
F0.0
sI25
F0.0
sI800
F4.8269828332822225e-06
sI1450
F1.9150485700599577e-05
sI300
F3.968114296506556e-05
sI1200
F1.4981492010615154e-05
sI50
F0.0
sI700
F1.4582242814865552e-05
sI1475
F2.8138870747328943e-05
sI1350
F4.912275875573239e-06
sI200
F6.133723458911368e-05
sI1100
F2.8406492703025096e-05
sI1490
F0.0
sI600
F3.100863279663388e-05
sI1250
F2.66291815706993e-05
sI100
F8.57047474836879e-06
sI1000
F2.2328468293540766e-05
sI500
F9.677037702233212e-06
sI1400
F2.213617520341816e-05
ssI2400
(dp25
I900
F2.510191053278955e-07
sI1800
F1.8615054980298166e-07
sI10
F0.0
sI400
F2.5827598531019024e-07
sI1300
F1.689864796024059e-07
sI150
F0.0
sI2200
F0.0
sI25
F0.0
sI800
F0.0
sI1700
F2.1371979835756643e-07
sI300
F1.0144285143383857e-07
sI2350
F2.5006864646437917e-07
sI1200
F0.0
sI50
F0.0
sI2100
F2.1799822957150565e-07
sI700
F1.1735455187741882e-07
sI1600
F7.066208417596486e-07
sI2375
F1.5306656653782128e-07
sI200
F4.0563455313913507e-07
sI2250
F2.3422132828073323e-07
sI1100
F0.0
sI2000
F2.658506153354836e-07
sI2390
F0.0
sI600
F1.701715000062407e-07
sI1500
F1.4440473494513415e-07
sI100
F0.0
sI2150
F2.564983374859402e-07
sI1000
F0.0
sI1900
F2.0321003179886662e-07
sI500
F0.0
sI1400
F0.0
sI2300
F0.0
ssI1250
(dp26
I800
F2.553023487064378e-05
sI1200
F4.367636666859168e-05
sI100
F5.1977064422122565e-05
sI950
F2.0624552189191034e-05
sI200
F3.145281988170335e-05
sI1100
F0.00017376915079483077
sI10
F2.84699476441632e-05
sI300
F7.797638006976108e-05
sI1240
F0.00010651379213015403
sI400
F3.0398554860325972e-05
sI1000
F0.0
sI50
F0.0
sI500
F4.569266120938042e-05
sI150
F0.00011758165609899849
sI1225
F3.962261683939266e-05
sI600
F9.647654210330164e-05
sI25
F0.0
sI900
F7.943639857448245e-05
sI700
F0.00010397210209579756
sI1050
F0.0
sI1150
F0.0
ssI2150
(dp27
I2050
F0.0
sI900
F0.0
sI1800
F7.661228986304902e-07
sI10
F0.0
sI400
F0.0
sI1300
F0.0
sI150
F0.0
sI25
F0.0
sI1950
F5.144545754062345e-07
sI800
F1.2657183958636375e-06
sI1700
F6.677953618101582e-07
sI2140
F4.979025600351482e-07
sI300
F4.417026915465741e-07
sI1200
F0.0
sI50
F1.5073700563646277e-06
sI2100
F2.4191716629192353e-06
sI1850
F6.222011045959819e-07
sI700
F0.0
sI1600
F1.45671498572738e-06
sI200
F0.0
sI1100
F5.745753227442068e-07
sI2125
F0.0
sI2000
F4.750911513666743e-08
sI600
F4.7662206721505856e-07
sI1500
F7.016982189341741e-07
sI100
F0.0
sI1000
F1.398910759274186e-06
sI1900
F1.730651936646078e-07
sI500
F5.783006416355633e-07
sI1400
F1.0108513893040201e-06
ssI1000
(dp28
I800
F0.0005628404383711857
sI100
F0.00026963179138920205
sI950
F0.00033453936073115265
sI200
F0.00015575685747928094
sI10
F5.970437961226049e-05
sI300
F0.0003451287067091556
sI850
F0.0002020991528699772
sI750
F0.00023848937699071259
sI975
F0.0003557473760454254
sI400
F0.00039321869351374386
sI50
F3.0231108605130052e-05
sI500
F0.00027420075539985464
sI150
F0.00029008136854032085
sI600
F0.0001996818480956743
sI25
F0.00012639814538749033
sI900
F0.0005348608596510917
sI700
F0.00022863198236710438
sI990
F0.00021399344918149354
ssI1900
(dp29
I900
F2.1585837906715424e-06
sI1800
F2.2877053147084695e-06
sI10
F0.0
sI400
F0.0
sI1300
F1.916980797031838e-06
sI150
F8.183376799346962e-07
sI25
F0.0
sI800
F2.3862932256473735e-06
sI1700
F3.910660940797716e-06
sI300
F1.7774507981588519e-06
sI1200
F3.954422998719713e-06
sI50
F1.1700434209710362e-06
sI1850
F1.3624334462430202e-06
sI700
F1.4242651978345427e-06
sI1600
F4.883475457787267e-06
sI200
F3.385273016111272e-06
sI1100
F2.4356754127853605e-06
sI1875
F2.936017349568551e-06
sI1750
F3.933042627460227e-06
sI600
F2.887421287367806e-06
sI1500
F3.155416919844629e-06
sI1890
F3.312291250135971e-06
sI100
F4.87245334131125e-06
sI1000
F1.460546346141286e-06
sI1650
F0.0
sI500
F2.5366934734108005e-06
sI1400
F2.0940944457715035e-06
ssI1650
(dp30
I900
F0.0
sI10
F2.571203288151199e-06
sI1550
F5.244197080875152e-06
sI400
F0.0
sI1300
F3.8834512065179365e-06
sI150
F5.039146462223252e-06
sI25
F0.0
sI800
F6.550450831994543e-07
sI1450
F2.3189747049355385e-05
sI300
F8.194099905450217e-06
sI1200
F1.216395872666299e-05
sI50
F0.0
sI700
F4.2541735125228365e-06
sI1600
F7.918930517956336e-06
sI1350
F7.437119782492715e-06
sI200
F8.845066839115034e-06
sI1100
F0.0
sI600
F2.2392979023590304e-07
sI1625
F1.804357333264129e-06
sI1500
F5.946024185879567e-06
sI100
F0.0
sI1000
F3.938064618023137e-06
sI1640
F3.2222771913296055e-06
sI500
F8.514126410986203e-06
sI1400
F8.112187200253198e-06
ssI1400
(dp31
I900
F3.193179690575278e-05
sI10
F0.0
sI400
F0.0
sI1300
F3.7351315034170485e-05
sI150
F5.009515799241726e-05
sI25
F0.0
sI800
F6.171079541512381e-05
sI300
F2.4495519745783103e-05
sI1200
F3.268398142815775e-05
sI50
F0.0
sI700
F9.098824903493744e-05
sI1350
F0.0
sI200
F2.846533217964962e-05
sI1100
F1.8442758652977483e-05
sI600
F0.0
sI1375
F4.053130304133914e-05
sI1250
F3.617688126238896e-05
sI100
F0.0
sI1000
F0.0
sI1390
F7.521256701179751e-05
sI500
F2.095662980295275e-05
sI1150
F3.466631709437423e-05
ssI2300
(dp32
I2050
F0.0
sI900
F3.6772295108731266e-07
sI1800
F2.6254703841823187e-07
sI10
F2.7923117083380235e-07
sI400
F2.1610201921069987e-07
sI1300
F3.391750178785055e-07
sI150
F3.332308665523185e-07
sI2200
F3.4112970411592855e-07
sI25
F0.0
sI800
F0.0
sI1700
F1.799559925499022e-07
sI300
F8.509186706091051e-07
sI1200
F6.300493979036053e-07
sI50
F0.0
sI2100
F5.466213327094795e-07
sI700
F0.0
sI1600
F3.0225634785769e-07
sI200
F0.0
sI2250
F3.2238621162799434e-07
sI1100
F0.0
sI2000
F0.0
sI600
F3.685392749296928e-07
sI1500
F6.19098368104679e-07
sI2275
F0.0
sI100
F0.0
sI2150
F0.0
sI1000
F3.052480693309578e-07
sI1900
F2.2658279539730878e-07
sI2290
F0.0
sI500
F0.0
sI1400
F6.175184616337874e-07
ssI1150
(dp33
I800
F4.743529773974618e-05
sI1140
F0.0001138494215144816
sI100
F8.717206224842974e-05
sI950
F6.53927224972095e-05
sI200
F5.860658549955845e-05
sI1100
F0.0002598029423311375
sI10
F2.6275852727717998e-05
sI300
F3.209407529501788e-06
sI850
F0.00013461755937523286
sI400
F0.0001246614282627354
sI1000
F0.00015363632617132136
sI50
F5.4863169101170075e-06
sI500
F5.542128586816694e-05
sI150
F8.328387939612612e-05
sI600
F1.795471682744016e-05
sI25
F3.731590966125609e-05
sI900
F0.0001513543496792234
sI700
F0.00017429628439978356
sI1050
F0.00013756389906523664
sI1125
F0.00021963020591569393
ss.