(dp0
I1025
F1.1159679751062475e-05
sI900
F1.2273094010757311e-05
sI775
F2.593889047940713e-05
sI650
F9.010454325113874e-05
sI525
F0.00014461318594171367
sI400
F0.0007515265561109916
sI1300
F2.1040938524494713e-06
sI1175
F2.1428107034689767e-06
sI1050
F7.966753405858038e-06
sI925
F1.4462875722657382e-05
sI800
F3.4025061112814e-05
sI675
F8.51249296193228e-05
sI550
F0.0002442103183619299
sI425
F0.0004472760095928787
sI300
F0.0019338395606653036
sI1200
F2.641841063738921e-06
sI1075
F6.238825143384068e-06
sI950
F1.2894641739835846e-05
sI825
F1.6052291513082206e-05
sI700
F6.941532972650661e-05
sI575
F0.00014235754550242702
sI450
F0.00032099722226468247
sI325
F0.001907553069340031
sI1225
F2.074507229163762e-06
sI1100
F3.648266757374071e-06
sI975
F9.434429461261863e-06
sI850
F1.9325777400170112e-05
sI725
F3.8393075933488945e-05
sI600
F0.00012076537307692032
sI475
F0.0006633391467786491
sI350
F0.0011465189667392932
sI1250
F2.3796159949980325e-06
sI1125
F4.092713096831537e-06
sI1000
F1.047988961751053e-05
sI875
F2.3847949988815644e-05
sI750
F5.5279899954650296e-05
sI625
F8.100642094014822e-05
sI500
F0.0001747754766857499
sI375
F0.0012070640433463702
sI1275
F1.760377464123827e-06
sI1150
F3.996733150760611e-06
s.