(dp0
I900
(dp1
I800
F0.0018181708724196788
sI100
F0.001996492809493336
sI200
F0.0020794546846220506
sI10
F0.002188068718348862
sI75
F0.002125242820849604
sI300
F0.0020412554811130796
sI750
F0.0014279329887960824
sI400
F0.002226456427814429
sI50
F0.0021475637023941068
sI500
F0.002117315862717434
sI600
F0.002214364356295427
sI25
F0.002901643596023942
sI700
F0.0015273905339687048
ssI650
(dp2
I450
F0.013788291345098382
sI500
F0.012053973152467964
sI550
F0.015077108475554254
ssI400
(dp3
I200
F0.2327673235038984
sI300
F0.25477307326559306
sI10
F0.24745650641148964
sI100
F0.2456259323560916
sI250
F0.19935383172232457
ssI1300
(dp4
I800
F0.0001273665780419367
sI1200
F0.0001091206853127761
sI100
F0.00012353485016499958
sI200
F0.00014060122158359296
sI1100
F9.075358037900476e-05
sI10
F0.00014785975532918973
sI75
F0.00013023980671805362
sI300
F0.00013780712260063298
sI400
F0.000154604330107242
sI1000
F0.00012867562165627856
sI50
F0.00014563722121864564
sI500
F0.00015413901487891607
sI600
F0.00015175029633775731
sI25
F0.00014564042291530005
sI900
F0.00013079890449223513
sI700
F0.00014769801818760288
sI1150
F9.759653524715127e-05
ssI1050
(dp5
I850
F0.0005358495477102821
sI900
F0.00045730699184731477
sI950
F0.0005876429915101297
ssI800
(dp6
I100
F0.0053733569655959774
sI200
F0.004225403491904379
sI10
F0.004297233432912037
sI75
F0.004349263004203188
sI300
F0.004705325235548334
sI400
F0.004741676087247574
sI50
F0.004705224006970924
sI500
F0.004129291806453056
sI600
F0.003717155513388101
sI25
F0.004390447921647212
sI700
F0.004432197391597265
sI650
F0.0030434734249270047
ssI550
(dp7
I400
F0.04169083443134675
sI450
F0.037286165969299186
sI350
F0.034168186466944986
ssI1450
(dp8
I1250
F5.311281153304912e-05
sI1300
F3.8231737472255776e-05
sI1350
F4.345325770736299e-05
ssI300
(dp9
I200
F0.838764472006025
sI10
F0.9247107582739634
sI100
F0.8996293380326702
sI150
F0.9005333029761737
ssI1200
(dp10
I800
F0.0002517773796120147
sI100
F0.00023390982164879924
sI200
F0.000324993086947545
sI1100
F0.0002149894516560159
sI10
F0.00025149739165729996
sI75
F0.0002902807055440336
sI300
F0.00026136474656630643
sI400
F0.00028667172418989984
sI1000
F0.00018825551930695667
sI50
F0.0002462170157415962
sI500
F0.00028558412643550597
sI600
F0.0002754017706893003
sI25
F0.0002607330621785951
sI900
F0.00024350274724235077
sI700
F0.00027684703897026597
sI1050
F0.0001992313333553706
ssI950
(dp11
I800
F0.0010539063676844047
sI850
F0.00117432607662734
sI750
F0.0012073092371794256
ssI700
(dp12
I100
F0.010369215581979441
sI550
F0.007536153648551935
sI200
F0.011329325220722499
sI10
F0.01123782603575551
sI300
F0.00957123644091319
sI400
F0.008818470769557149
sI500
F0.00875147932198694
sI600
F0.008503163265919683
ssI450
(dp13
I250
F0.10132274637419321
sI300
F0.1161215150422524
sI350
F0.11413450371852343
ssI1350
(dp14
I1200
F7.883862313132022e-05
sI1250
F8.598334963354787e-05
sI1150
F8.67377805008671e-05
ssI1100
(dp15
I800
F0.0004972093857757782
sI100
F0.0005158813678158211
sI200
F0.0005001540635033449
sI10
F0.0005558599215928401
sI75
F0.0005389441420466725
sI300
F0.0005085389330701216
sI400
F0.0005359075034173904
sI1000
F0.0004642843501892743
sI50
F0.00046885335465945017
sI500
F0.0005237646807667118
sI950
F0.00039972049327988303
sI600
F0.0004680382992176677
sI25
F0.00047669930970407095
sI900
F0.0004733784062889316
sI700
F0.0004725530016633087
ssI850
(dp16
I650
F0.0025182694773623424
sI700
F0.0033677219299915497
sI750
F0.0024660385573990317
ssI600
(dp17
I450
F0.021402332301330575
sI100
F0.03260069002763431
sI200
F0.02535670901592646
sI10
F0.02719494847334235
sI300
F0.026324366923954942
sI400
F0.019919385903141684
sI500
F0.02112164898999953
ssI1500
(dp18
I800
F4.152067962191208e-05
sI1200
F4.371295682207498e-05
sI100
F3.8828929119937497e-05
sI1350
F3.115079406511937e-05
sI1300
F3.967481477939501e-05
sI1400
F3.530510481788169e-05
sI200
F4.0219468124625925e-05
sI1100
F4.4977396253523314e-05
sI10
F3.7651525026668946e-05
sI75
F3.565569470176463e-05
sI300
F3.8470483832098513e-05
sI400
F3.504009497569797e-05
sI1000
F4.989155213131596e-05
sI50
F4.27445070651863e-05
sI500
F4.4347267122776685e-05
sI600
F4.164389594157106e-05
sI25
F3.70015909904552e-05
sI900
F3.9521189441252246e-05
sI700
F4.0196091137571034e-05
ssI350
(dp19
I200
F0.4181966098738896
sI250
F0.4474194656397115
sI150
F0.5012490804696664
ssI1250
(dp20
I1050
F0.00016143543772190427
sI1100
F0.0001357500349453702
sI1150
F0.0001741867058285303
ssI1000
(dp21
I800
F0.0007591507169722638
sI100
F0.0010083305338807935
sI200
F0.0009930329012981466
sI10
F0.0011226041015193497
sI75
F0.0009931065748414116
sI300
F0.001035839253826515
sI850
F0.0007339922575091314
sI400
F0.0010388892877403796
sI50
F0.001022805172552791
sI500
F0.001122688473151749
sI600
F0.0010191165379894913
sI25
F0.0011018425506036723
sI900
F0.0009209184185312688
sI700
F0.0009460129368757225
ssI750
(dp22
I600
F0.005658612089718589
sI650
F0.005612773281442749
sI550
F0.0057648948053711825
ssI500
(dp23
I100
F0.07195696896200501
sI200
F0.07040482435690677
sI10
F0.0761700198646246
sI300
F0.07493131188753137
sI400
F0.05738051149240679
sI350
F0.059411962740306024
ssI1400
(dp24
I800
F7.507707565263361e-05
sI1200
F5.626250711978625e-05
sI1250
F6.284001655952953e-05
sI100
F6.882747525249205e-05
sI1300
F6.824521269019125e-05
sI200
F8.314067956330638e-05
sI1100
F6.469747828534936e-05
sI10
F7.270461934250923e-05
sI75
F6.536531460912993e-05
sI300
F7.238325372123688e-05
sI400
F7.514211940397201e-05
sI1000
F7.015001010287157e-05
sI50
F6.841847520037178e-05
sI500
F8.775477999061797e-05
sI600
F7.922646760884612e-05
sI25
F7.554155133096126e-05
sI900
F7.117265126609555e-05
sI700
F7.523296711300294e-05
ssI1150
(dp25
I1000
F0.00028605328243876745
sI1050
F0.0003478343001420799
sI950
F0.00029901100627967124
ss.