(dp0
I640
(dp1
I480
F0.00011136497388781665
sI355
F0.00021741519411029087
sI580
F0.00018865819916167445
sI230
F0.00011265602697480448
sI455
F0.00012633798565420896
sI330
F5.821795567798682e-05
sI555
F0.00030274147570473876
sI205
F5.7738279622524755e-05
sI430
F9.90494065620674e-05
sI305
F0.0
sI530
F0.0008242575049315335
sI405
F0.00010445875964157028
sI630
F0.00015338900297445324
sI280
F5.5476035943494257e-05
sI505
F0.00021704838227722695
sI380
F0.00020534866900930745
sI605
F5.323888040611546e-05
sI255
F0.00020366301603874987
ssI515
(dp2
I480
F0.00016126160222955274
sI355
F0.0006829714442038997
sI230
F0.00048373451215534785
sI455
F0.0004679010416310514
sI330
F0.00027686180610117603
sI205
F0.00015894948138081764
sI430
F0.0010044163743783744
sI305
F0.00015881821607652115
sI405
F0.0022559012249852473
sI280
F0.0
sI505
F0.00035479743778592634
sI380
F0.00014531846450376403
sI255
F0.0004343944091623307
ssI390
(dp3
I355
F0.0005563917459786052
sI230
F0.0016496753825130939
sI330
F0.0005199270936054354
sI205
F0.001115892821741883
sI305
F0.0021086833053076664
sI280
F0.006069850316663687
sI380
F0.0005162465050977227
sI255
F0.0009788436494857341
ssI265
(dp4
I205
F0.0
sI230
F0.0
sI255
F0.0029933242187517735
ssI915
(dp5
I905
F1.2280174786360842e-05
sI780
F2.8783545178984028e-05
sI655
F1.9406722819812637e-05
sI530
F4.970972114859024e-05
sI405
F1.691480351226602e-05
sI280
F4.5548990017116e-05
sI805
F7.393021655135795e-05
sI680
F2.7550092026427025e-05
sI555
F4.7093736261114384e-05
sI430
F1.4604568712885309e-05
sI305
F1.958293904406515e-05
sI830
F5.328335209051213e-05
sI705
F7.794485781875799e-05
sI580
F4.617378326364639e-05
sI455
F4.371215836688537e-05
sI330
F3.0654118437956154e-05
sI205
F1.0909256074610363e-06
sI855
F2.0253105473194097e-05
sI730
F4.152419398240491e-05
sI605
F1.3408836104962108e-05
sI480
F1.6714239514442008e-05
sI355
F2.8543186523015316e-05
sI230
F0.0
sI880
F1.2140970504622522e-05
sI755
F1.5256394952531035e-05
sI630
F4.4780080148007515e-05
sI505
F3.0521487854119144e-05
sI380
F0.0
sI255
F0.0
ssI790
(dp6
I780
F3.5833808347254144e-05
sI655
F3.922392267709302e-05
sI530
F1.6721863596525345e-06
sI405
F3.300561881116337e-05
sI280
F0.0
sI680
F0.00022002991258611193
sI555
F4.123725844933341e-05
sI430
F5.880414625881289e-05
sI305
F3.761119171158e-05
sI705
F0.00012513834253505285
sI580
F0.00011117502618951183
sI455
F4.368881009129591e-05
sI330
F7.575706629608121e-05
sI205
F6.569537346786683e-05
sI730
F8.600688163131077e-05
sI605
F0.0001238958499327045
sI480
F3.518522298697429e-05
sI355
F0.0
sI230
F4.4582807439107506e-05
sI755
F0.0
sI630
F3.964769077985909e-05
sI505
F3.562057304128772e-05
sI380
F2.815282694639808e-05
sI255
F3.234339186335097e-05
ssI665
(dp7
I480
F0.0001182212809750652
sI355
F0.0003393967529903786
sI580
F0.0004582342524660083
sI230
F4.555968394261632e-05
sI455
F0.0002530005148031517
sI330
F0.00017907147126375084
sI555
F0.0008099964416253808
sI205
F4.5743324708913836e-05
sI430
F0.000297192470759376
sI655
F8.03808788348442e-05
sI305
F0.000131164930526632
sI530
F0.00021052424668311997
sI405
F0.00013443952467620307
sI630
F0.00020763052575057655
sI280
F4.2867976433312286e-05
sI505
F0.00022329105264593248
sI380
F9.768900775843412e-05
sI605
F0.00013959171059793875
sI255
F4.808088369442931e-05
ssI540
(dp8
I480
F0.00013792546560989757
sI355
F0.00035845823639597265
sI230
F0.00012378292240719656
sI455
F0.0007557282206915071
sI330
F0.00027483038143756876
sI205
F0.0
sI430
F0.0011228101577669756
sI305
F0.00011898875957029996
sI530
F4.7270525253210866e-05
sI405
F0.00034543887407954236
sI280
F0.0002719870623992582
sI505
F0.00024217206737861863
sI380
F0.0
sI255
F0.0006562942348213482
ssI415
(dp9
I355
F0.0022108448704982768
sI230
F0.0007054210221156272
sI330
F0.0008244261080602915
sI205
F0.0007743150518188795
sI305
F0.0012733294124841607
sI405
F0.0008918515876684307
sI280
F0.0018216703930077772
sI380
F0.0008802694255410412
sI255
F0.0006850559533844194
ssI290
(dp10
I280
F0.0
sI205
F0.007080558817243051
sI230
F0.001657963707669208
sI255
F0.0
ssI940
(dp11
I905
F1.2470913739233636e-05
sI780
F5.292733850508422e-05
sI655
F1.0855870021794607e-05
sI530
F0.0
sI405
F0.0
sI280
F0.0
sI930
F4.788781575957351e-06
sI805
F4.790874858532066e-05
sI680
F1.625996557649924e-05
sI555
F2.4741197639268872e-05
sI430
F0.0
sI305
F0.0
sI830
F8.817814051689441e-05
sI705
F2.619784445504917e-05
sI580
F2.0285923568621316e-05
sI455
F1.5766668070178525e-05
sI330
F0.0
sI205
F0.0
sI855
F8.271607339821155e-05
sI730
F1.3144910584930962e-05
sI605
F1.2168286158024664e-05
sI480
F1.3051412136585321e-05
sI355
F2.550282288612516e-05
sI230
F0.0
sI880
F1.367822231717737e-05
sI755
F2.5304491083553417e-05
sI630
F3.354836331060476e-05
sI505
F1.3942901610951727e-05
sI380
F3.978696648806955e-05
sI255
F3.2385673749803326e-05
ssI815
(dp12
I780
F6.291336492337057e-05
sI655
F5.886140634300235e-05
sI530
F2.8645084904084734e-05
sI405
F0.0
sI280
F2.821185322470672e-05
sI805
F2.5617723128855253e-05
sI680
F0.0
sI555
F6.803157510709342e-05
sI430
F3.2692813813752395e-05
sI305
F5.814204531142751e-05
sI705
F0.00021782878448400186
sI580
F0.0
sI455
F0.0
sI330
F0.0
sI205
F3.195922126025257e-05
sI730
F0.00016370729929447492
sI605
F4.99186674513732e-05
sI480
F2.8226468909743574e-05
sI355
F0.0
sI230
F0.0
sI755
F3.6102899564026155e-05
sI630
F6.0727396788666685e-05
sI505
F2.679032271330255e-05
sI380
F2.384963179969765e-05
sI255
F2.876019309761247e-05
ssI690
(dp13
I480
F0.00017302751977733152
sI355
F9.184143965291964e-05
sI580
F0.0007001783671257922
sI230
F7.517787749302127e-05
sI455
F0.0
sI680
F3.394263553886297e-05
sI330
F7.630632473472023e-05
sI555
F7.127621199494167e-05
sI205
F3.545870880523532e-05
sI430
F7.60016496572597e-05
sI655
F7.976126175486472e-05
sI305
F9.750867000416952e-05
sI530
F3.521307361250348e-05
sI405
F0.0001404223305816482
sI630
F0.0
sI280
F9.052628399868787e-05
sI505
F0.00010859738760870315
sI380
F0.00014066309809147919
sI605
F0.0002564665400752482
sI255
F9.300250673912432e-05
ssI565
(dp14
I480
F0.00030754570921476254
sI355
F0.00019434497704721226
sI230
F0.0
sI455
F0.0010484032297906397
sI330
F8.270199913355954e-05
sI555
F0.00012005870848241962
sI205
F0.00016091422751448602
sI430
F0.0005283251097660297
sI305
F0.000277643303276565
sI530
F9.206012357384614e-05
sI405
F0.00033094546438969534
sI280
F0.00020885203107244704
sI505
F0.0007027655029725421
sI380
F0.00012905567972013176
sI255
F0.00021585228842993157
ssI440
(dp15
I355
F0.0012828451266263675
sI230
F0.0
sI330
F0.0042454668559028606
sI205
F0.0003319890595102368
sI430
F0.0006907298491494926
sI305
F0.0005202575363692272
sI405
F0.00033175043712772433
sI280
F0.0009075931742143103
sI380
F0.0011525809382052048
sI255
F0.0001378669737142049
ssI315
(dp16
I280
F0.0026271151955761128
sI305
F0.0
sI205
F0.004900219231314602
sI230
F0.0047985781253978696
sI255
F0.00281820649276056
ssI965
(dp17
I905
F2.1934062625272454e-05
sI780
F1.0131898135381086e-05
sI655
F3.346866989432974e-05
sI530
F1.1266879517716749e-05
sI405
F1.097794288035559e-05
sI280
F1.1900970908879468e-05
sI930
F2.3503998911829587e-05
sI805
F1.1610192036172526e-05
sI680
F0.0
sI555
F0.0
sI430
F9.9039409691023e-06
sI305
F1.1653754560428781e-05
sI955
F1.2393493421472195e-05
sI830
F3.7768319904107004e-05
sI705
F1.0991397709972828e-05
sI580
F0.0
sI455
F1.154909963744794e-05
sI330
F0.0
sI205
F1.3174797816754697e-05
sI855
F0.0001886634518403816
sI730
F4.630242395254644e-05
sI605
F1.8686912200980574e-05
sI480
F1.2052825553104897e-05
sI355
F2.9152558911714776e-05
sI230
F0.0
sI880
F4.1247802265674385e-05
sI755
F3.7942640235227535e-05
sI630
F2.2398432157672557e-05
sI505
F1.2256831295862309e-05
sI380
F3.414313502362287e-05
sI255
F3.430761320279351e-05
ssI840
(dp18
I780
F0.0
sI655
F5.756256348206945e-05
sI530
F4.4335575269018194e-05
sI405
F2.1549378639496164e-05
sI280
F2.1034809281865197e-05
sI805
F6.87036353919349e-05
sI680
F4.7433057385419114e-05
sI555
F2.493922217589376e-05
sI430
F7.118394558258814e-05
sI305
F0.0
sI830
F4.421672157648454e-05
sI705
F7.47747043752933e-05
sI580
F2.7636393566410287e-05
sI455
F2.981704079870063e-05
sI330
F5.7665051078421065e-05
sI205
F2.9264340152590173e-05
sI730
F0.00017660939152245428
sI605
F1.965334335415453e-05
sI480
F2.4237749747071056e-05
sI355
F1.8756921126055112e-05
sI230
F2.481143712543164e-05
sI755
F0.000177495427795827
sI630
F4.54958769275576e-05
sI505
F5.0588519809866995e-05
sI380
F2.3838088906891687e-05
sI255
F0.0
ssI715
(dp19
I480
F9.26423027808505e-05
sI705
F3.1928715535760895e-05
sI355
F0.00012495295456210095
sI580
F0.00011965889691608856
sI230
F8.650587939077983e-05
sI455
F3.1739673703560884e-05
sI680
F3.410463893914541e-05
sI330
F3.7078495858595205e-05
sI555
F0.00015285045763912446
sI205
F0.00011694102904217565
sI430
F3.0303581552447465e-05
sI655
F0.0
sI305
F6.58224172243528e-05
sI530
F0.00012232638392528517
sI405
F8.73070074054202e-05
sI630
F0.00034642329269936214
sI280
F9.349533091181788e-05
sI505
F6.036052427068009e-05
sI380
F2.8810009280561583e-05
sI605
F0.0005443046911862354
sI255
F2.6609032101983014e-05
ssI590
(dp20
I480
F0.0010285895745783256
sI355
F4.6103029015371725e-07
sI580
F7.939542512922644e-05
sI230
F0.00036082776002191105
sI455
F0.00016249380931223392
sI330
F0.0
sI555
F0.0003764670524357284
sI205
F9.037160904505598e-05
sI430
F0.0009223588388442525
sI305
F0.00015045976059452197
sI530
F0.00033260039457086546
sI405
F8.288712301413116e-05
sI280
F0.00018519341332534886
sI505
F0.00039214287377085135
sI380
F0.00010872982267320709
sI255
F1.4715423298211924e-06
ssI465
(dp21
I355
F0.0031997323074665347
sI230
F0.00045814007242718757
sI455
F0.0
sI330
F0.0007987095544153175
sI205
F0.00031736074986551526
sI430
F0.0006827930540978197
sI305
F0.00023784760579133017
sI405
F0.0005524475595759878
sI280
F0.0006742746968078129
sI380
F0.0006943811178010286
sI255
F0.00022352558541327254
ssI340
(dp22
I230
F0.004695108814405702
sI330
F0.0009240146185026523
sI205
F0.0008264912862001714
sI305
F0.0
sI280
F0.0021041835331153235
sI255
F0.0008316362056897012
ssI215
(dp23
I205
F0.0
ssI990
(dp24
I905
F6.865574392373617e-05
sI780
F8.659365553806895e-06
sI655
F1.5671860476869844e-05
sI530
F0.0
sI405
F1.0985541374418394e-05
sI280
F8.755759192793201e-06
sI930
F3.154111878234372e-05
sI805
F1.921897478778389e-05
sI680
F8.974185646720714e-06
sI555
F2.59355463366197e-05
sI430
F2.112987628512726e-05
sI305
F3.3754752334354864e-05
sI955
F2.880680860564608e-06
sI830
F3.178116845848082e-05
sI705
F1.262832266038792e-05
sI580
F5.222931836948365e-06
sI455
F9.123816505848098e-06
sI330
F1.9364482965402557e-05
sI205
F7.769609114006332e-06
sI980
F0.0
sI855
F5.808436733199754e-05
sI730
F8.871655554095705e-06
sI605
F1.6897954123526674e-05
sI480
F0.0
sI355
F2.3161120791380727e-05
sI230
F9.166314272414243e-06
sI880
F5.2033383741465004e-05
sI755
F2.5368792553502158e-05
sI630
F0.0
sI505
F1.7388678690829706e-05
sI380
F1.035804107245836e-05
sI255
F0.0
ssI865
(dp25
I780
F8.318051808420844e-05
sI655
F1.983309148119871e-05
sI530
F9.882741779611135e-05
sI405
F3.898409391966644e-05
sI280
F1.9141195458124683e-05
sI805
F6.196350259207069e-05
sI680
F1.6606550030133523e-05
sI555
F0.00012824965912394427
sI430
F7.700915454588181e-05
sI305
F2.0182507553910563e-05
sI830
F9.075870129784334e-05
sI705
F1.998440595791757e-05
sI580
F3.8900927565599596e-05
sI455
F2.47585170894803e-05
sI330
F0.0
sI205
F1.826859535014797e-05
sI855
F2.001682543461156e-05
sI730
F3.352996189105232e-05
sI605
F4.050598412787799e-06
sI480
F2.1991840044645397e-05
sI355
F2.038243212173082e-05
sI230
F3.84808475223736e-05
sI755
F0.00025009604004235864
sI630
F2.193398609131357e-05
sI505
F5.242961005690401e-07
sI380
F0.0
sI255
F1.8485833233056154e-05
ssI740
(dp26
I655
F0.00010334020705888802
sI530
F9.278500813429956e-05
sI405
F5.102323869803541e-05
sI280
F4.539455890201771e-05
sI680
F0.0001541359204271159
sI555
F0.0001041968235971726
sI430
F0.0001781238838006025
sI305
F0.0
sI705
F0.0001015458605519888
sI580
F0.00014921936839785055
sI455
F0.0
sI330
F3.0019133315371704e-05
sI205
F0.0
sI730
F0.0
sI605
F0.000160277965273743
sI480
F0.0
sI355
F0.00011625740323168724
sI230
F4.954736718830431e-05
sI630
F0.0003797067486409144
sI505
F0.0002289160210021012
sI380
F4.82509978100384e-05
sI255
F0.0001294321648413798
ssI615
(dp27
I480
F0.0002954652806071259
sI355
F2.5563216912402735e-05
sI580
F0.00013594572073595537
sI230
F9.900741663585613e-05
sI455
F0.00039176509597844007
sI330
F6.909279687366846e-05
sI555
F0.00024315809245637946
sI205
F6.84251455912274e-05
sI430
F0.0004270169270212581
sI305
F0.00011989449855186733
sI530
F0.0003934638655039708
sI405
F0.00013425630739302406
sI280
F0.00018802551382286704
sI505
F0.0013409108577404065
sI380
F0.00025476697692922124
sI605
F0.0
sI255
F0.0
ssI490
(dp28
I480
F0.00019535694536219648
sI355
F0.0006303728802675952
sI230
F0.000540687068420774
sI455
F0.00026855568524136795
sI330
F0.0010349006407292228
sI205
F0.0
sI430
F0.0007767119417537476
sI305
F0.00034790206658910134
sI405
F0.000827175100467765
sI280
F0.00041345572515244717
sI380
F0.0018563751720047919
sI255
F0.0001979103936577154
ssI365
(dp29
I355
F0.000670466073895329
sI230
F0.0006400361271321611
sI330
F0.0012926545180831858
sI205
F0.0
sI305
F0.001865995834339691
sI280
F0.0006615065107410563
sI255
F0.008361274073029137
ssI240
(dp30
I205
F0.0
sI230
F0.0
ssI1015
(dp31
I905
F6.866031870314528e-05
sI780
F1.567860411819907e-05
sI655
F2.5683186332829657e-05
sI530
F0.0
sI405
F2.0053195859261812e-05
sI280
F2.5595905423141706e-05
sI930
F3.2053400198297135e-05
sI805
F1.601021424617855e-05
sI680
F1.6724392344812307e-05
sI555
F7.637183940551802e-06
sI430
F1.3119604445133966e-05
sI305
F8.62483801548594e-06
sI955
F2.2820216499820186e-05
sI830
F6.649359034759783e-06
sI705
F1.717528092448082e-05
sI580
F2.6038018452156497e-05
sI455
F1.6518934645496553e-05
sI330
F5.584530160293761e-06
sI205
F0.0
sI980
F2.1258083789360062e-05
sI855
F3.5389454756341385e-05
sI730
F1.5877581802681916e-05
sI605
F1.106165873446265e-06
sI480
F2.4540907959371285e-05
sI355
F7.430562939212011e-06
sI230
F6.88497131427291e-06
sI1005
F1.4578991287644431e-05
sI880
F2.0991066182095536e-05
sI755
F6.485381253648828e-06
sI630
F3.693238489742237e-05
sI505
F6.93916624493254e-06
sI380
F1.5467733350505996e-05
sI255
F7.519200398944559e-06
ssI890
(dp32
I780
F0.00021995393805664853
sI655
F4.36855261849419e-05
sI530
F8.709758651972623e-05
sI405
F0.0
sI280
F1.0152539879037318e-05
sI805
F7.156911229715537e-05
sI680
F1.8993704620420333e-05
sI555
F3.825241854762981e-05
sI430
F3.59307439371564e-05
sI305
F0.0
sI830
F3.265790733507047e-05
sI705
F1.668908012834717e-05
sI580
F4.384977782384189e-05
sI455
F4.8378163134154585e-05
sI330
F1.590986645904145e-05
sI205
F2.869464595260336e-05
sI855
F3.364942249731044e-05
sI730
F6.26332420564527e-05
sI605
F9.864095516767053e-06
sI480
F0.0
sI355
F1.6786696720997652e-05
sI230
F1.1204482827204135e-05
sI880
F1.6377697124988947e-05
sI755
F7.817211667111087e-05
sI630
F6.978432557372973e-05
sI505
F3.4192376665131134e-05
sI380
F7.598421144164868e-05
sI255
F2.407905054293358e-05
ssI765
(dp33
I655
F0.0002567067067720353
sI530
F0.00017121422259998116
sI405
F3.432977840908217e-05
sI280
F3.770361889712293e-05
sI680
F0.0002482623489904633
sI555
F7.484674453030252e-05
sI430
F9.625828622274316e-05
sI305
F4.230355075815328e-05
sI705
F3.871910816461724e-05
sI580
F0.0
sI455
F4.4298282209089066e-05
sI330
F4.664548250919215e-05
sI205
F0.0
sI730
F7.738266687949382e-05
sI605
F0.00014352912850889118
sI480
F3.3221530469318055e-05
sI355
F9.867375541242232e-05
sI230
F3.902038352297593e-05
sI755
F4.15214102181459e-05
sI630
F0.0
sI505
F4.595411463556592e-05
sI380
F0.00011461910604360404
sI255
F7.820803660640292e-05
ss.