(dp0
I900
(dp1
I900
F0.10445437976623519
sI650
F0.035793999049992115
sI400
F0.0005407513673109723
sI1300
F0.12919616560477826
sI1050
F0.11152852732381476
sI800
F0.10281356827941844
sI550
F0.000709888855154488
sI1450
F0.1309871587843185
sI300
F0.0
sI1200
F0.13073089151129683
sI950
F0.11224989718531513
sI700
F0.06404859265900213
sI450
F0.0004716232117241337
sI1350
F0.12749436619606988
sI200
F0.0
sI1100
F0.11474016969747793
sI850
F0.10634346969123837
sI600
F0.0005873274995719266
sI1500
F0.11996610087267019
sI350
F0.00024154006581201935
sI1250
F0.12389650505913989
sI1000
F0.13226227314241995
sI750
F0.0840996720726228
sI500
F0.0009411672108910955
sI1400
F0.10826313885376418
sI250
F0.0
sI1150
F0.11314638469796917
ssI650
(dp2
I900
F0.12027410889288266
sI650
F0.09387376126305569
sI400
F0.000763947198202861
sI1300
F0.1334712672593775
sI1050
F0.12216293646329265
sI800
F0.10551400721848489
sI550
F0.05429072379990082
sI1450
F0.13780063831276743
sI300
F0.0
sI1200
F0.13544892580229784
sI950
F0.1184844202095418
sI700
F0.09686666798793185
sI450
F0.000414333762448881
sI1350
F0.13724001151567494
sI200
F0.0
sI1100
F0.1394811577966437
sI850
F0.11272999200848438
sI600
F0.0780347544902149
sI1500
F0.13248950896643885
sI350
F0.00044706773444296477
sI1250
F0.11972663527978927
sI1000
F0.12304547873024509
sI750
F0.09865268798003553
sI500
F0.016119621779867706
sI1400
F0.13250600742544696
sI250
F0.0
sI1150
F0.12600296997613927
ssI400
(dp3
I900
F0.1304243038407248
sI650
F0.11026567791394055
sI400
F0.050716913492081746
sI1300
F0.14220816815004306
sI1050
F0.13312668411774933
sI800
F0.12728052323250316
sI550
F0.09247339079005248
sI1450
F0.14712354368781222
sI300
F0.0
sI1200
F0.14736703009247856
sI950
F0.12280923659322936
sI700
F0.11679410655985795
sI450
F0.062429584047870135
sI1350
F0.1467222325556188
sI200
F0.0
sI1100
F0.1281330189696235
sI850
F0.13069540036058544
sI600
F0.10201906819375432
sI1500
F0.15346349211987936
sI350
F0.006827245238904875
sI1250
F0.13532443908546146
sI1000
F0.12173322724424272
sI750
F0.10605736753309047
sI500
F0.08199161358777321
sI1400
F0.14931264412805836
sI250
F0.0
sI1150
F0.1442052047450324
ssI1300
(dp4
I900
F0.03165963469171645
sI650
F0.0005497286966615808
sI400
F0.001003682676389551
sI1300
F0.11335003908764478
sI1050
F0.10629307983225299
sI800
F0.0
sI550
F0.0007647554075266492
sI1450
F0.1342189477111105
sI300
F0.0
sI1200
F0.12159779578762206
sI950
F0.07094885954597635
sI700
F0.0012642579518190324
sI450
F0.0011661380504173105
sI1350
F0.12509343622450989
sI200
F0.0
sI1100
F0.09538071311020593
sI850
F0.00948517254383751
sI600
F0.0011819880456808878
sI1500
F0.12940861167340345
sI350
F0.0005046668268153712
sI1250
F0.13266232192527108
sI1000
F0.07836629294642028
sI750
F0.0005750674150431763
sI500
F0.0008242378702747018
sI1400
F0.11365120263358616
sI250
F0.0
sI1150
F0.10700788523442352
ssI1050
(dp5
I900
F0.08046825659512863
sI650
F0.0
sI400
F0.0004639921244242208
sI1300
F0.13984696590052603
sI1050
F0.10950837985571943
sI800
F0.07481291032281587
sI550
F0.0017251216785203172
sI1450
F0.1209981617245703
sI300
F0.0
sI1200
F0.11611558707076222
sI950
F0.10181679271279162
sI700
F0.004092935233822197
sI450
F0.0007803840302522434
sI1350
F0.1060424875747688
sI200
F0.0
sI1100
F0.13082707192444254
sI850
F0.07915876317005609
sI600
F0.0005563621131599142
sI1500
F0.12841009725333635
sI350
F0.0004746588279003325
sI1250
F0.11915166795293536
sI1000
F0.10279762687980522
sI750
F0.030296569429195685
sI500
F0.0008822006952465395
sI1400
F0.13559094089212093
sI250
F0.0
sI1150
F0.12531573512070732
ssI800
(dp6
I900
F0.11496631504594382
sI650
F0.062388215143012266
sI400
F0.0002735451049119547
sI1300
F0.12478976247613038
sI1050
F0.1356642861063786
sI800
F0.08480720135177375
sI550
F0.0006427370922384687
sI1450
F0.12893161536730544
sI300
F0.0
sI1200
F0.12876441514210013
sI950
F0.1259964447316841
sI700
F0.08874795644184372
sI450
F0.000669476314467701
sI1350
F0.12046390676179218
sI200
F0.0
sI1100
F0.13034344877601883
sI850
F0.09920977235706785
sI600
F0.02681100600134325
sI1500
F0.1282496041912415
sI350
F0.0
sI1250
F0.13248467982894374
sI1000
F0.10619810901205552
sI750
F0.07383786367438927
sI500
F0.0017910968208718202
sI1400
F0.13359756341832837
sI250
F0.0
sI1150
F0.12041773375263565
ssI550
(dp7
I900
F0.12333389564588447
sI650
F0.09864070624942886
sI400
F0.0006186215383455704
sI1300
F0.138863767952823
sI1050
F0.13856294301027527
sI800
F0.12095047688484825
sI550
F0.07787455279333487
sI1450
F0.1446717504411302
sI300
F0.0
sI1200
F0.13698428306433894
sI950
F0.12721358309790468
sI700
F0.09865138770179231
sI450
F0.024357276674590884
sI1350
F0.1420403781362731
sI200
F0.0
sI1100
F0.12907127355140216
sI850
F0.1208177967611088
sI600
F0.09072096051170978
sI1500
F0.1402955823029458
sI350
F0.0
sI1250
F0.1326772456087298
sI1000
F0.13515829876887944
sI750
F0.12501354609635973
sI500
F0.056355235920799135
sI1400
F0.13976314722199007
sI250
F0.0
sI1150
F0.1266056825990871
ssI1450
(dp8
I900
F0.001619641052052912
sI650
F0.001223860220351715
sI400
F0.00048168542430260605
sI1300
F0.11807242388649529
sI1050
F0.06828421799166261
sI800
F0.0019897022375335686
sI550
F0.0010819403189796253
sI1450
F0.10779560923099
sI300
F0.0
sI1200
F0.09415357768605533
sI950
F0.019045720702309338
sI700
F0.0013831523989355785
sI450
F0.0014572502798224007
sI1350
F0.12187902416017211
sI200
F0.0
sI1100
F0.10902416610642264
sI850
F0.0014045995830186447
sI600
F0.0
sI1500
F0.12988059760658358
sI350
F0.000652718552570381
sI1250
F0.10929485354015918
sI1000
F0.052405046856996165
sI750
F0.0006029998955842767
sI500
F0.00024282220960677455
sI1400
F0.11532671360280337
sI250
F0.0
sI1150
F0.10026624534927113
ssI300
(dp9
I900
F0.12386460436679349
sI650
F0.10063273141351248
sI400
F0.06983061646515712
sI1300
F0.13503288545076
sI1050
F0.1350480425917481
sI800
F0.11615612551533964
sI550
F0.09652567670158976
sI1450
F0.13910473196041773
sI300
F0.00865761106482533
sI1200
F0.146225517977998
sI950
F0.11993017127786815
sI700
F0.10424569114735703
sI450
F0.07195871551793304
sI1350
F0.1412805160549957
sI200
F0.0
sI1100
F0.13750210331249366
sI850
F0.11391177843808208
sI600
F0.09592136191230179
sI1500
F0.13568817600821254
sI350
F0.05021029851267717
sI1250
F0.13639836743698058
sI1000
F0.12165105871175996
sI750
F0.12034470912479682
sI500
F0.08885371129644316
sI1400
F0.13985382489888923
sI250
F0.0
sI1150
F0.1301529432919816
ssI1200
(dp10
I900
F0.07163142408246594
sI650
F0.0012622376605562469
sI400
F0.0007089498875234108
sI1300
F0.12788383496112518
sI1050
F0.11564291619044244
sI800
F0.014802773704711704
sI550
F0.0005526122758494289
sI1450
F0.13929977265733284
sI300
F0.0
sI1200
F0.11749398899138816
sI950
F0.09595831732052741
sI700
F0.000515923652858355
sI450
F0.0007844102537289143
sI1350
F0.11827819160046102
sI200
F0.0
sI1100
F0.10673835066677731
sI850
F0.04622684151860297
sI600
F0.0025596007662475164
sI1500
F0.11426388298909278
sI350
F0.0
sI1250
F0.13421079996258345
sI1000
F0.10937490770559202
sI750
F0.0012106473706959668
sI500
F0.0006401734218931418
sI1400
F0.1310401027173585
sI250
F0.0
sI1150
F0.11842472903624573
ssI950
(dp11
I900
F0.10043920734356783
sI650
F0.006712758940614635
sI400
F0.000676555520494515
sI1300
F0.1372871181300087
sI1050
F0.11648140235880997
sI800
F0.0841537132987474
sI550
F0.0007284765975459335
sI1450
F0.14356144787722508
sI300
F0.00025265935546403025
sI1200
F0.13323664328237472
sI950
F0.11446659231719247
sI700
F0.0413664886827867
sI450
F0.0013358926757028261
sI1350
F0.12025814603011126
sI200
F0.0
sI1100
F0.12068825055316248
sI850
F0.09008700440019847
sI600
F0.0014475106399823993
sI1500
F0.14613364614244584
sI350
F0.0
sI1250
F0.11376026628364276
sI1000
F0.1134835575354368
sI750
F0.06464909511500606
sI500
F0.0011413279158215878
sI1400
F0.14276567355939793
sI250
F0.0
sI1150
F0.1250888750220407
ssI700
(dp12
I900
F0.11688188749087774
sI650
F0.07628704858028873
sI400
F0.0003957559934239793
sI1300
F0.13014513643432088
sI1050
F0.12816610195216008
sI800
F0.1102575072902512
sI550
F0.03586785617316084
sI1450
F0.14434107882780509
sI300
F0.0
sI1200
F0.13553584365749777
sI950
F0.11844474810263553
sI700
F0.08885442239886998
sI450
F0.0005146162647046824
sI1350
F0.13992462860558053
sI200
F0.0
sI1100
F0.13183897956688206
sI850
F0.11588954185508206
sI600
F0.06277502118859452
sI1500
F0.1331354050262306
sI350
F0.0007939847320200323
sI1250
F0.12777888038188334
sI1000
F0.11421281048693756
sI750
F0.10626963741794918
sI500
F0.0029717799891441727
sI1400
F0.13889313571288825
sI250
F0.0
sI1150
F0.12323191594488893
ssI450
(dp13
I900
F0.12768251987266405
sI650
F0.11109865294930717
sI400
F0.02559438704552293
sI1300
F0.14128756263525852
sI1050
F0.1364867831850431
sI800
F0.12833381914880995
sI550
F0.0899158900184633
sI1450
F0.14787749318560584
sI300
F0.0
sI1200
F0.13375942461180032
sI950
F0.12697608516701056
sI700
F0.10324151834529402
sI450
F0.06186962853167278
sI1350
F0.13257993531821383
sI200
F0.0
sI1100
F0.13330301134009692
sI850
F0.13070924990457783
sI600
F0.09991100787573594
sI1500
F0.15461064285736306
sI350
F0.0004638749872573718
sI1250
F0.14180970810274243
sI1000
F0.13279685321884774
sI750
F0.11417990394646438
sI500
F0.07942878360415884
sI1400
F0.14176582232214638
sI250
F0.0
sI1150
F0.12300178510642155
ssI1350
(dp14
I900
F0.01979263093888263
sI650
F0.0006185928016840359
sI400
F0.0007379661606729532
sI1300
F0.12292107108723259
sI1050
F0.09991816735135219
sI800
F0.002585544606693736
sI550
F0.0011632547496854852
sI1450
F0.13194633997432548
sI300
F0.0002483903276175016
sI1200
F0.11960782793001837
sI950
F0.056605687261552254
sI700
F0.0018775645072421727
sI450
F0.0006857829219171713
sI1350
F0.1267915748177181
sI200
F0.0
sI1100
F0.10748855823686178
sI850
F0.0022654842284050374
sI600
F0.0006040009264218623
sI1500
F0.12999028701693702
sI350
F0.00028276681422941533
sI1250
F0.10696457850319897
sI1000
F0.08146310446611199
sI750
F0.0007211892920515478
sI500
F0.0004785304433113772
sI1400
F0.11503422740684471
sI250
F0.0
sI1150
F0.12073228909248462
ssI200
(dp15
I900
F0.1253160546640763
sI650
F0.0983977958899272
sI400
F0.06974543333818753
sI1300
F0.13523174433665724
sI1050
F0.1289526993681596
sI800
F0.10665467050764012
sI550
F0.0935643171741609
sI1450
F0.14028703916078938
sI300
F0.03026095855747759
sI1200
F0.13100801518218114
sI950
F0.13686379115707908
sI700
F0.1051555998715285
sI450
F0.06893677429777059
sI1350
F0.14517848536082556
sI200
F0.0
sI1100
F0.12449355221005032
sI850
F0.12309817151872228
sI600
F0.08937583807002854
sI1500
F0.14239162263717137
sI350
F0.05323454570422784
sI1250
F0.1405732191288319
sI1000
F0.12589271117543005
sI750
F0.1136293247337273
sI500
F0.0803533586416674
sI1400
F0.14256147674580197
sI250
F0.008002701675960176
sI1150
F0.12499679617299946
ssI1100
(dp16
I900
F0.084865964655289
sI650
F0.0020696756240344886
sI400
F0.001581970184723912
sI1300
F0.13358188778026123
sI1050
F0.10633915554075359
sI800
F0.05687435055379139
sI550
F0.0006245415133864807
sI1450
F0.15127217384644698
sI300
F0.0
sI1200
F0.12016522900871796
sI950
F0.10092047548585738
sI700
F0.0020438915755768496
sI450
F0.0007686709261705938
sI1350
F0.13684428838006163
sI200
F0.0
sI1100
F0.12538136843791445
sI850
F0.08057297285981393
sI600
F0.00132606873794291
sI1500
F0.12923486183942115
sI350
F0.0002383249035129017
sI1250
F0.1286602383349084
sI1000
F0.09724267460397482
sI750
F0.014636406607163543
sI500
F0.0004426040287091549
sI1400
F0.12421681682012933
sI250
F0.0
sI1150
F0.1118639700397589
ssI850
(dp17
I900
F0.10859057063474678
sI650
F0.04153735563140076
sI400
F0.0005134671138267976
sI1300
F0.12178911446034242
sI1050
F0.1280925422239393
sI800
F0.11044955701213147
sI550
F0.0
sI1450
F0.140365909058668
sI300
F0.0
sI1200
F0.1415565626533436
sI950
F0.10861876572368213
sI700
F0.052215793105077644
sI450
F0.0006211235376432874
sI1350
F0.12199559437199532
sI200
F0.0
sI1100
F0.11350180728326706
sI850
F0.0983199085660016
sI600
F0.01639191222923527
sI1500
F0.1523746125294664
sI350
F0.0
sI1250
F0.1432240900567807
sI1000
F0.1254884876499417
sI750
F0.09993523729957833
sI500
F0.0013088444229796894
sI1400
F0.12420189327865415
sI250
F0.0
sI1150
F0.11112364735681679
ssI600
(dp18
I900
F0.11174018317601613
sI650
F0.09436520864892922
sI400
F0.0006638443000816501
sI1300
F0.13963380038101442
sI1050
F0.13020923022568304
sI800
F0.1064090688570471
sI550
F0.06445801961386947
sI1450
F0.1337774239896686
sI300
F0.0
sI1200
F0.12618900833342195
sI950
F0.12716620939334
sI700
F0.10080438009666384
sI450
F0.004849416463345392
sI1350
F0.14589095687064482
sI200
F0.0
sI1100
F0.13008081007648867
sI850
F0.1144231406575848
sI600
F0.08316814651732074
sI1500
F0.13802530993273363
sI350
F0.00046583604164227846
sI1250
F0.13684543573170754
sI1000
F0.12691947031892845
sI750
F0.10661937805821546
sI500
F0.032541091215563
sI1400
F0.1459000273174298
sI250
F0.0
sI1150
F0.12821783545818904
ssI1500
(dp19
I900
F0.0006838780692394969
sI650
F0.0006966351884867572
sI400
F0.001570100792558633
sI1300
F0.12060796450231655
sI1050
F0.05507023006947623
sI800
F0.0005782712186570379
sI550
F0.0019463738492468455
sI1450
F0.1191050027890021
sI300
F0.0
sI1200
F0.09853463036752189
sI950
F0.001962512380641062
sI700
F0.0015125088100966708
sI450
F0.00044280954781758357
sI1350
F0.13059940791888772
sI200
F0.0
sI1100
F0.08682762471409627
sI850
F0.0012599511653358366
sI600
F0.0005191292014632917
sI1500
F0.12042002217949968
sI350
F0.00024429236458753617
sI1250
F0.10393104556324684
sI1000
F0.028416519067303934
sI750
F0.0015127706330128735
sI500
F0.0008800752404258777
sI1400
F0.12390932112491662
sI250
F0.0
sI1150
F0.10448533520266662
ssI350
(dp20
I900
F0.1192795021842488
sI650
F0.09989004867655062
sI400
F0.061555449557624924
sI1300
F0.14270446573730453
sI1050
F0.13695673330492258
sI800
F0.1246182167131893
sI550
F0.09514022331550188
sI1450
F0.1448252846225415
sI300
F0.0002505111786319227
sI1200
F0.13991104932404227
sI950
F0.13135114668963474
sI700
F0.10438529427011103
sI450
F0.07654294202842049
sI1350
F0.13850639091254793
sI200
F0.0
sI1100
F0.13736676200543022
sI850
F0.12332384337418603
sI600
F0.09623026827631222
sI1500
F0.15663618055250983
sI350
F0.026914486844833933
sI1250
F0.140259487800686
sI1000
F0.1315940142144785
sI750
F0.12362834817804572
sI500
F0.08215904772763982
sI1400
F0.14576467171048932
sI250
F0.0
sI1150
F0.1342275833053074
ssI1250
(dp21
I900
F0.05018495755504507
sI650
F0.002417067778968556
sI400
F0.00047202068913268947
sI1300
F0.1385951644723574
sI1050
F0.10427846104351374
sI800
F0.0020001545484359977
sI550
F0.000584832830629005
sI1450
F0.12172540384941243
sI300
F0.00020635067093093557
sI1200
F0.10278411519085594
sI950
F0.07510160895618413
sI700
F0.0014857851442772357
sI450
F0.0011073963230379485
sI1350
F0.13094283599244752
sI200
F0.0
sI1100
F0.12155798192738392
sI850
F0.02392263449716811
sI600
F0.0006404343723138067
sI1500
F0.124220354371705
sI350
F0.0003136136851172667
sI1250
F0.12054194142840167
sI1000
F0.09637309232671022
sI750
F0.001269479781920029
sI500
F0.0004657908760754095
sI1400
F0.11820450521260256
sI250
F0.0
sI1150
F0.10138289659156806
ssI1000
(dp22
I900
F0.11138012682725047
sI650
F0.0005968064396016834
sI400
F0.0006412948014237038
sI1300
F0.13668731908161846
sI1050
F0.10465321347970802
sI800
F0.086292999657739
sI550
F0.0006766851139274426
sI1450
F0.1371949025554346
sI300
F0.0
sI1200
F0.11410841445073905
sI950
F0.10669536071858143
sI700
F0.02332838054790245
sI450
F0.0018843575074671867
sI1350
F0.13102197893955217
sI200
F0.0
sI1100
F0.11618112839023281
sI850
F0.0940505726264477
sI600
F0.0006146057569697475
sI1500
F0.14810253230718973
sI350
F0.00021588079117765003
sI1250
F0.14261787592476358
sI1000
F0.11307052095108744
sI750
F0.06760363979017413
sI500
F0.0002170325409784126
sI1400
F0.12946755379397995
sI250
F0.0
sI1150
F0.12101768175164826
ssI750
(dp23
I900
F0.1098354714623523
sI650
F0.07646030133720402
sI400
F0.00025883640110502373
sI1300
F0.13586394171064778
sI1050
F0.12019059749056765
sI800
F0.11055502214237618
sI550
F0.014593954827441864
sI1450
F0.13441838383297075
sI300
F0.00022489001302471585
sI1200
F0.12089671322948817
sI950
F0.1173570263497681
sI700
F0.08521570834696922
sI450
F0.0013321075487324075
sI1350
F0.12649161007629442
sI200
F0.0
sI1100
F0.1214559214770424
sI850
F0.11211035672778377
sI600
F0.05526736179476574
sI1500
F0.1387829357104887
sI350
F0.0004152774684732766
sI1250
F0.12424090521339276
sI1000
F0.12149123338271145
sI750
F0.09571493594338161
sI500
F0.0011053552334126116
sI1400
F0.13298129548970347
sI250
F0.0
sI1150
F0.12139587223794451
ssI500
(dp24
I900
F0.13203494470646598
sI650
F0.0963866014628559
sI400
F0.005014164542162866
sI1300
F0.1355740777021325
sI1050
F0.1321000887223455
sI800
F0.12157700578336497
sI550
F0.08176380162432074
sI1450
F0.1542089839165565
sI300
F0.00022153142498974694
sI1200
F0.12984895134023924
sI950
F0.12444205972786798
sI700
F0.1042507137547914
sI450
F0.04101802281361187
sI1350
F0.14530971207378304
sI200
F0.0
sI1100
F0.1313900453681873
sI850
F0.11077567628252984
sI600
F0.0874269210888885
sI1500
F0.13952578171085753
sI350
F0.0
sI1250
F0.13962346033371834
sI1000
F0.12917657263614515
sI750
F0.10836098649827047
sI500
F0.06315804886440585
sI1400
F0.12921438136241004
sI250
F0.0
sI1150
F0.13300180739569775
ssI1400
(dp25
I900
F0.004104125298873524
sI650
F0.0022832550318763853
sI400
F0.0011364894533128908
sI1300
F0.11020910307563801
sI1050
F0.08909002097659288
sI800
F0.0005675525552871052
sI550
F0.0018076795453133212
sI1450
F0.13081350032161915
sI300
F0.0
sI1200
F0.11059736459493356
sI950
F0.03370521486043667
sI700
F0.0
sI450
F0.0006023824471997181
sI1350
F0.10802850634541997
sI200
F0.0
sI1100
F0.11485867974533712
sI850
F0.0
sI600
F0.001250908213182564
sI1500
F0.12674833450565146
sI350
F0.00023476714516681987
sI1250
F0.10737962444477132
sI1000
F0.06868483026421231
sI750
F0.002595731066349501
sI500
F0.0013865555551622305
sI1400
F0.10800032351101513
sI250
F0.0
sI1150
F0.09270424031104176
ssI250
(dp26
I900
F0.1213806449260387
sI650
F0.10498258541347034
sI400
F0.06025816426462005
sI1300
F0.14138415608715357
sI1050
F0.1384656223514058
sI800
F0.11744424889328832
sI550
F0.09401484841732723
sI1450
F0.14654336964427547
sI300
F0.02127583435030054
sI1200
F0.13523544840043858
sI950
F0.12204907300644202
sI700
F0.09280420587320232
sI450
F0.07624197770471067
sI1350
F0.14048091965328274
sI200
F0.0
sI1100
F0.13068539111730387
sI850
F0.11373204118294936
sI600
F0.09106195707015255
sI1500
F0.1382647688576805
sI350
F0.04084654382649166
sI1250
F0.14085943830580283
sI1000
F0.13431303845828593
sI750
F0.11513773498414395
sI500
F0.07765767597163566
sI1400
F0.1296008721331221
sI250
F0.00023681732404269985
sI1150
F0.1369878203747311
ssI1150
(dp27
I900
F0.08483298523779872
sI650
F0.0005564894232534563
sI400
F0.000692730288299142
sI1300
F0.11714229966540543
sI1050
F0.11002431207574141
sI800
F0.02654873467000395
sI550
F0.001172927940636622
sI1450
F0.14255496212328383
sI300
F0.0
sI1200
F0.11732830919871899
sI950
F0.09682730048341609
sI700
F0.0
sI450
F0.000222833968008626
sI1350
F0.144669319779945
sI200
F0.0
sI1100
F0.12544371329232012
sI850
F0.05757226821731955
sI600
F0.0
sI1500
F0.13023587265717892
sI350
F0.0002515116154299934
sI1250
F0.11123329510550832
sI1000
F0.09578186336704278
sI750
F0.0021325240997313298
sI500
F0.00046844049651305184
sI1400
F0.12235205367691102
sI250
F0.0
sI1150
F0.12149367995301744
ss.