(dp0
I900
(dp1
I2050
F0.1295103328604685
sI1800
F0.12368726061463009
sI1550
F0.11690922022420808
sI2450
F0.13113588014111666
sI1300
F0.12800402655617518
sI2200
F0.12182731429955536
sI1050
F0.10620074547660634
sI1950
F0.13618823292189858
sI1700
F0.12448136619946454
sI1450
F0.12081383023802328
sI2350
F0.12444899229257202
sI1200
F0.1252541732765881
sI2100
F0.14330643147970734
sI1850
F0.12453641385499288
sI1600
F0.11951488042842273
sI2500
F0.1367379558014398
sI1350
F0.11803952784729488
sI2250
F0.14448696597566824
sI1100
F0.1175615183453118
sI2000
F0.12495325000889836
sI1750
F0.12860430384850588
sI1500
F0.1221355630206345
sI2400
F0.11886800649199179
sI1250
F0.11202570692531383
sI2150
F0.1371533958763379
sI1000
F0.10214892298086378
sI1900
F0.11995696321896514
sI1650
F0.11700811641459156
sI1400
F0.11028853146859156
sI2300
F0.1362222819279846
sI1150
F0.10983284949230765
ssI650
(dp2
I2050
F0.11574044017376629
sI1800
F0.13506224988211554
sI1550
F0.11998815114434855
sI2450
F0.1412597918170023
sI1300
F0.12199814141416523
sI2200
F0.1374133081781436
sI1050
F0.11097748702619192
sI1950
F0.11750895692150888
sI1700
F0.13287840150852373
sI1450
F0.1190077403159478
sI2350
F0.12369983164461802
sI1200
F0.09785646925045711
sI2100
F0.13132806748060427
sI1850
F0.12606786335658088
sI1600
F0.1129403917043794
sI2500
F0.12547166829937334
sI1350
F0.10789489301127272
sI2250
F0.12423015693158389
sI1100
F0.10217183873736921
sI2000
F0.12928777991955978
sI1750
F0.11361392246326157
sI1500
F0.12066042512503924
sI2400
F0.12720446673546199
sI1250
F0.11223865379941617
sI2150
F0.1304535875180934
sI1000
F0.12174827455742579
sI1900
F0.12474090312862893
sI1650
F0.12417409021054959
sI1400
F0.1087709283235447
sI2300
F0.1404847074638731
sI1150
F0.10902902033512582
ssI400
(dp3
I2050
F0.13920046718242535
sI1800
F0.12040025845133644
sI1550
F0.11466675944517524
sI2450
F0.12001710929792501
sI1300
F0.11287013861720735
sI2200
F0.13471231116583768
sI1050
F0.11711856046397097
sI1950
F0.12868686829306103
sI1700
F0.13564414123808993
sI1450
F0.11584715350184117
sI2350
F0.13579806147539067
sI1200
F0.1143026367938294
sI2100
F0.13448870819861208
sI1850
F0.1324375638075824
sI1600
F0.12581733273562734
sI2500
F0.13137806101777355
sI1350
F0.11185737664667289
sI2250
F0.13985214185963826
sI1100
F0.1044025201769145
sI2000
F0.12202949083508621
sI1750
F0.12582808020440264
sI1500
F0.11024458422049632
sI2400
F0.13403145172443715
sI1250
F0.10929829595273884
sI2150
F0.12527733865267457
sI1000
F0.1112875529657776
sI1900
F0.11536044920010965
sI1650
F0.11927044925872898
sI1400
F0.10972923633231618
sI2300
F0.12217144581045984
sI1150
F0.10550510726278109
ssI1300
(dp4
I2050
F0.14645105234406022
sI1800
F0.1372839178060074
sI1550
F0.13039721824240805
sI2450
F0.13136835501607372
sI1300
F0.11732011033494802
sI2200
F0.12101412192446097
sI1050
F0.12237315953250218
sI1950
F0.15593301132556048
sI1700
F0.1375123658985453
sI1450
F0.12618483901748645
sI2350
F0.13484429004081339
sI1200
F0.1219269900293145
sI2100
F0.1196019306546544
sI1850
F0.1378794291707952
sI1600
F0.12934026012064148
sI2500
F0.13018486739356017
sI1350
F0.12331361492974331
sI2250
F0.11810808538267853
sI1100
F0.1147968696553533
sI2000
F0.13123041510802474
sI1750
F0.1148267016271334
sI1500
F0.13670159825076725
sI2400
F0.13946226373870454
sI1250
F0.11264795557611887
sI2150
F0.11895277819554703
sI1000
F0.1296015319973203
sI1900
F0.1174833062059165
sI1650
F0.12261760908725479
sI1400
F0.12943199203378264
sI2300
F0.13332479485728693
sI1150
F0.10928984666882577
ssI150
(dp5
I2050
F0.11371341720646798
sI1800
F0.11502621635702007
sI1550
F0.10974829446698595
sI2450
F0.11688443966106186
sI1300
F0.10068603399210843
sI2200
F0.11298871986043413
sI1050
F0.09577598175512017
sI1950
F0.11222242350980106
sI1700
F0.11203362332909665
sI1450
F0.1106875360639824
sI2350
F0.11937326711699353
sI1200
F0.09822463875364985
sI2100
F0.11901731598503724
sI1850
F0.11497831835689225
sI1600
F0.10451438939670421
sI2500
F0.12166852132474641
sI1350
F0.10254191577163847
sI2250
F0.10796156405699317
sI1100
F0.08664354593973249
sI2000
F0.1204629156741551
sI1750
F0.1008832614157715
sI1500
F0.10596768573095154
sI2400
F0.13093975065330754
sI1250
F0.10253661650871876
sI2150
F0.12920847044183079
sI1000
F0.0955321157944459
sI1900
F0.11260182099443732
sI1650
F0.10795959790222211
sI1400
F0.1130494143454054
sI2300
F0.1272910064792896
sI1150
F0.08942472180563665
ssI1050
(dp6
I2050
F0.1183380767982154
sI1800
F0.13170137019621148
sI1550
F0.12972819613786296
sI2450
F0.13436215187022266
sI1300
F0.13065836582560025
sI2200
F0.13662073594344917
sI1050
F0.11669081382820351
sI1950
F0.12923377596361355
sI1700
F0.1190701508990637
sI1450
F0.10362227201202703
sI2350
F0.12861992832172914
sI1200
F0.12355606106882838
sI2100
F0.13305284638904258
sI1850
F0.1415932263081113
sI1600
F0.12816611885139503
sI2500
F0.1266856718297357
sI1350
F0.13513997684825746
sI2250
F0.1326999979161909
sI1100
F0.11757688506622531
sI2000
F0.12862159486710173
sI1750
F0.1380326105948352
sI1500
F0.12034341701343669
sI2400
F0.13531219241968495
sI1250
F0.12661713706393307
sI2150
F0.12993010065391114
sI1000
F0.1173852294283609
sI1900
F0.12789163268347042
sI1650
F0.1408931190095288
sI1400
F0.1232626780955319
sI2300
F0.13114060838181235
sI1150
F0.11928024893832839
ssI800
(dp7
I2050
F0.13963100796310735
sI1800
F0.13210230964349307
sI1550
F0.13340337233446456
sI2450
F0.12163115033715027
sI1300
F0.11572186407779798
sI2200
F0.11954751132585922
sI1050
F0.1107148555676786
sI1950
F0.1423145498252476
sI1700
F0.11082681873678998
sI1450
F0.12439213153272487
sI2350
F0.13540776441737093
sI1200
F0.12132489035420574
sI2100
F0.13388475116012255
sI1850
F0.11224264640396903
sI1600
F0.1156123701667771
sI2500
F0.13865127919688955
sI1350
F0.11270806821675251
sI2250
F0.12796437912525846
sI1100
F0.0939362966602042
sI2000
F0.11783377986309858
sI1750
F0.10157066787204788
sI1500
F0.12036003653236085
sI2400
F0.13386967229225222
sI1250
F0.1079109209167301
sI2150
F0.12932934887882663
sI1000
F0.10347232121416734
sI1900
F0.12766018334833945
sI1650
F0.13303498437033967
sI1400
F0.12246312168474476
sI2300
F0.13482331843507078
sI1150
F0.12368579493641
ssI550
(dp8
I2050
F0.11923101145951312
sI1800
F0.1228319393378389
sI1550
F0.117481984225507
sI2450
F0.1356897307007014
sI1300
F0.11646671689447859
sI2200
F0.12014680193661179
sI1050
F0.10763988439428031
sI1950
F0.1262679682760379
sI1700
F0.13365114367290754
sI1450
F0.11773860471459104
sI2350
F0.12551043586458718
sI1200
F0.11573716908589551
sI2100
F0.1219453061320547
sI1850
F0.12074976034862997
sI1600
F0.12176015895789934
sI2500
F0.12442359523591334
sI1350
F0.11610656434263782
sI2250
F0.12935559294504534
sI1100
F0.12602368212101966
sI2000
F0.12170451265208843
sI1750
F0.12645141311742059
sI1500
F0.11531386892813583
sI2400
F0.12428828845507622
sI1250
F0.11223619862597933
sI2150
F0.12963947202488169
sI1000
F0.10754646014294358
sI1900
F0.13148373982371275
sI1650
F0.11444006906777487
sI1400
F0.1262197201267435
sI2300
F0.13367602129596126
sI1150
F0.11850338015546943
ssI1450
(dp9
I2050
F0.14348810271169724
sI1800
F0.13359166960618868
sI1550
F0.11772443219718079
sI2450
F0.13323470753500133
sI1300
F0.1256975032146231
sI2200
F0.12354970120520621
sI1050
F0.13725403341002257
sI1950
F0.12705405304746584
sI1700
F0.13019474523228444
sI1450
F0.12532800311802803
sI2350
F0.13715068766411218
sI1200
F0.12179998684535963
sI2100
F0.12839367548227712
sI1850
F0.1407564781008195
sI1600
F0.13002775057818056
sI2500
F0.1291237951258278
sI1350
F0.11587937913844314
sI2250
F0.1454269245689323
sI1100
F0.09418022251517359
sI2000
F0.13578318814142176
sI1750
F0.1252135642132429
sI1500
F0.12249140707464773
sI2400
F0.1227531796169956
sI1250
F0.1270575456618231
sI2150
F0.15258170781036556
sI1000
F0.1259900851349156
sI1900
F0.1362278534454793
sI1650
F0.13809083094579874
sI1400
F0.11306264435549367
sI2300
F0.13414620025375565
sI1150
F0.12206090242653529
ssI300
(dp10
I2050
F0.12441416512314714
sI1800
F0.1268910515152339
sI1550
F0.11881946864633335
sI2450
F0.13442543488524458
sI1300
F0.11599902054964155
sI2200
F0.1230065403176134
sI1050
F0.10370261422078136
sI1950
F0.12046323844181275
sI1700
F0.12697667391122014
sI1450
F0.1121328235737328
sI2350
F0.1301396206753243
sI1200
F0.10540040469813211
sI2100
F0.13842343584680236
sI1850
F0.11884190125843486
sI1600
F0.1195606253978819
sI2500
F0.12704921979043507
sI1350
F0.11254819424839826
sI2250
F0.13333539741377728
sI1100
F0.10310449393168605
sI2000
F0.11576533689890318
sI1750
F0.1240706906553333
sI1500
F0.12049332896117013
sI2400
F0.11946027850035039
sI1250
F0.10154793441954023
sI2150
F0.12378306429389065
sI1000
F0.10549347073410567
sI1900
F0.1222017392453618
sI1650
F0.11587288657265135
sI1400
F0.11669437494317743
sI2300
F0.13462212954886155
sI1150
F0.11191991217028682
ssI1200
(dp11
I2050
F0.13082186802255852
sI1800
F0.13459155639328255
sI1550
F0.12796763014493423
sI2450
F0.14443447491654202
sI1300
F0.12182930041672266
sI2200
F0.14343414488895254
sI1050
F0.11776094318843411
sI1950
F0.12508363611330364
sI1700
F0.12802406581990847
sI1450
F0.11642492294738638
sI2350
F0.13175739715249302
sI1200
F0.133249859280904
sI2100
F0.1501107803261126
sI1850
F0.11658385832634564
sI1600
F0.12527734944516591
sI2500
F0.12378793945842592
sI1350
F0.138869696512431
sI2250
F0.12619823464567545
sI1100
F0.11342443124172646
sI2000
F0.12198588305287317
sI1750
F0.13214583794464027
sI1500
F0.11662619481773245
sI2400
F0.13123103085086618
sI1250
F0.11376919295517152
sI2150
F0.11736575878168776
sI1000
F0.12708410815729665
sI1900
F0.12629525789241103
sI1650
F0.12849406340798308
sI1400
F0.1255025244277637
sI2300
F0.138447667727004
sI1150
F0.12586224314860192
ssI50
(dp12
I2050
F0.11189882059310839
sI1800
F0.10907850620740918
sI1550
F0.10206601643608018
sI2450
F0.11751789609846859
sI1300
F0.10504863573430702
sI2200
F0.11329745871113878
sI1050
F0.08245044750001576
sI1950
F0.11257494578998603
sI1700
F0.10796946376617717
sI1450
F0.09686087057298884
sI2350
F0.10165035655466916
sI1200
F0.09132502267989287
sI2100
F0.11464170340606594
sI1850
F0.10883450752353609
sI1600
F0.09873577086405685
sI2500
F0.11365634378569553
sI1350
F0.100891333595975
sI2250
F0.1050455933632518
sI1100
F0.09058480414878507
sI2000
F0.1032143465741202
sI1750
F0.1030056572496751
sI1500
F0.09798896239503818
sI2400
F0.10445566722853998
sI1250
F0.09372222059529978
sI2150
F0.1091319041201742
sI1000
F0.0936763801096237
sI1900
F0.10524152350207389
sI1650
F0.09990498453317846
sI1400
F0.10210509866588147
sI2300
F0.11848174600092974
sI1150
F0.09989105410699337
ssI950
(dp13
I2050
F0.11662223009997012
sI1800
F0.12301114690536867
sI1550
F0.12376964418999738
sI2450
F0.1201085674622556
sI1300
F0.1258787233733815
sI2200
F0.1346823970458508
sI1050
F0.12009572704564471
sI1950
F0.11133678443726674
sI1700
F0.12066039494040641
sI1450
F0.1355826185006174
sI2350
F0.12622471947947422
sI1200
F0.11600006084625904
sI2100
F0.11449797287225236
sI1850
F0.12404085528754996
sI1600
F0.11540908609489582
sI2500
F0.11950480074330896
sI1350
F0.13424844759362753
sI2250
F0.12366901548278852
sI1100
F0.11796309035686155
sI2000
F0.13253814614838277
sI1750
F0.12199498893898815
sI1500
F0.1164225027982061
sI2400
F0.11969709006648092
sI1250
F0.10789590114389912
sI2150
F0.12779337528976661
sI1000
F0.1252192524362976
sI1900
F0.13213677402358825
sI1650
F0.12719700122681485
sI1400
F0.13370189386094755
sI2300
F0.12042370706128674
sI1150
F0.11511809125094753
ssI700
(dp14
I2050
F0.13452377577456687
sI1800
F0.11241770306534969
sI1550
F0.1290213344251923
sI2450
F0.13732237646813547
sI1300
F0.11170752357498474
sI2200
F0.12203072395452272
sI1050
F0.12143065984166915
sI1950
F0.13326531643737224
sI1700
F0.11672416804184413
sI1450
F0.10983205933621601
sI2350
F0.12187865121473916
sI1200
F0.11866817438373173
sI2100
F0.12138092544263591
sI1850
F0.11701525374417972
sI1600
F0.12769819809787042
sI2500
F0.1368766323745773
sI1350
F0.11957601186223385
sI2250
F0.125196352196754
sI1100
F0.11417835974074532
sI2000
F0.1273549049175086
sI1750
F0.12683409261182124
sI1500
F0.11218694360639253
sI2400
F0.1327923020384749
sI1250
F0.12760074684809358
sI2150
F0.13613346814984362
sI1000
F0.1225765463796008
sI1900
F0.13467178593089854
sI1650
F0.1290983375624157
sI1400
F0.11316685068656535
sI2300
F0.14188459675718268
sI1150
F0.10550777138149564
ssI450
(dp15
I2050
F0.12757161889551524
sI1800
F0.11824255537764254
sI1550
F0.12000097367291554
sI2450
F0.12733502864771806
sI1300
F0.11764115844779925
sI2200
F0.12015749554822155
sI1050
F0.11230251553829161
sI1950
F0.12380324936792957
sI1700
F0.12101113677278272
sI1450
F0.12639633888964616
sI2350
F0.13374401600094896
sI1200
F0.11224790876798504
sI2100
F0.13003539680442378
sI1850
F0.12489250055790471
sI1600
F0.12188989514362737
sI2500
F0.13474163233188932
sI1350
F0.12083110251645629
sI2250
F0.12763111196729274
sI1100
F0.11414938365576126
sI2000
F0.12405165503731365
sI1750
F0.13229337853913067
sI1500
F0.11980772703102671
sI2400
F0.12490739672178677
sI1250
F0.11355845435016128
sI2150
F0.12757256327215458
sI1000
F0.11165659927303472
sI1900
F0.13323594832111532
sI1650
F0.12222684612125896
sI1400
F0.11785450476641338
sI2300
F0.11769728843404188
sI1150
F0.10057473154866856
ssI1350
(dp16
I2050
F0.13848057477203368
sI1800
F0.14271225017686243
sI1550
F0.14703105749328707
sI2450
F0.13200658332250623
sI1300
F0.14028701108546093
sI2200
F0.13559774320147883
sI1050
F0.11596437976301507
sI1950
F0.13526664748106754
sI1700
F0.12020817441439233
sI1450
F0.12596538955712758
sI2350
F0.12686582159368115
sI1200
F0.12091130519292809
sI2100
F0.11969054767809029
sI1850
F0.13287020932305638
sI1600
F0.12584555827256855
sI2500
F0.13537938869375993
sI1350
F0.1140832199627152
sI2250
F0.13490546462627995
sI1100
F0.12155999531989875
sI2000
F0.13525246788779244
sI1750
F0.11973658562969457
sI1500
F0.12020297994723647
sI2400
F0.15021750162267064
sI1250
F0.12986591209584286
sI2150
F0.13971667391425643
sI1000
F0.10124742551065538
sI1900
F0.12057790122059914
sI1650
F0.13222618421856247
sI1400
F0.12004088391026382
sI2300
F0.12717469770750556
sI1150
F0.11304749258348576
ssI200
(dp17
I2050
F0.10788981398212188
sI1800
F0.11233454887417958
sI1550
F0.10624936280260544
sI2450
F0.12469125473769967
sI1300
F0.10746929344257414
sI2200
F0.11714555433423285
sI1050
F0.08537782949095817
sI1950
F0.12142916949862675
sI1700
F0.10960223141033162
sI1450
F0.10335850281614208
sI2350
F0.11631267720632428
sI1200
F0.10003360224227995
sI2100
F0.12107707736686345
sI1850
F0.11170509250481726
sI1600
F0.10574281844980024
sI2500
F0.12074757442998457
sI1350
F0.10271634227405986
sI2250
F0.12720748788004665
sI1100
F0.09342745329271607
sI2000
F0.11401078179378865
sI1750
F0.1174126345413308
sI1500
F0.10168991105168597
sI2400
F0.11651155972617647
sI1250
F0.10400800288118434
sI2150
F0.11441596170309955
sI1000
F0.0914251776492903
sI1900
F0.10985076468450859
sI1650
F0.11768772872641062
sI1400
F0.10666580382770491
sI2300
F0.12079058598781814
sI1150
F0.10124361112143769
ssI1100
(dp18
I2050
F0.13242907950492394
sI1800
F0.13457559196187552
sI1550
F0.12405076598292464
sI2450
F0.12352889640292407
sI1300
F0.12686788705573188
sI2200
F0.1090940594023082
sI1050
F0.12174997919279046
sI1950
F0.11626004364848871
sI1700
F0.12815629277010387
sI1450
F0.12225629541788859
sI2350
F0.14745121572616227
sI1200
F0.1112485057471802
sI2100
F0.12694012338849348
sI1850
F0.12507888042322543
sI1600
F0.13014029350861175
sI2500
F0.14074199808366208
sI1350
F0.10912996573210956
sI2250
F0.13171608761532935
sI1100
F0.12420171361418744
sI2000
F0.15789329877818786
sI1750
F0.12810678382705015
sI1500
F0.1233414401797707
sI2400
F0.13816688309138447
sI1250
F0.11295829639820817
sI2150
F0.12575392913464475
sI1000
F0.11106308557416017
sI1900
F0.1125618213979771
sI1650
F0.12749928484325346
sI1400
F0.12760106167047278
sI2300
F0.1356570851315331
sI1150
F0.11057172428746895
ssI850
(dp19
I2050
F0.1160818264685402
sI1800
F0.12948332094625634
sI1550
F0.10992413771652293
sI2450
F0.12556027531115496
sI1300
F0.09161971925787374
sI2200
F0.12456592990064923
sI1050
F0.118398080805033
sI1950
F0.14115051349591595
sI1700
F0.13193428715505648
sI1450
F0.13296728230580832
sI2350
F0.1243682389137693
sI1200
F0.10712061084817631
sI2100
F0.13287627666398588
sI1850
F0.11551358810391499
sI1600
F0.12347935967053941
sI2500
F0.12297395348729276
sI1350
F0.12434864141718022
sI2250
F0.1283407892279215
sI1100
F0.11910832699700015
sI2000
F0.13610395247045845
sI1750
F0.123535796515319
sI1500
F0.11665011928524065
sI2400
F0.13121727703193273
sI1250
F0.12581502429343144
sI2150
F0.13503268210360853
sI1000
F0.1155016482902216
sI1900
F0.1304000253585873
sI1650
F0.14071725844252894
sI1400
F0.11623483933734854
sI2300
F0.12207266534871986
sI1150
F0.12154949427165083
ssI600
(dp20
I2050
F0.12614675383080048
sI1800
F0.12764562075084268
sI1550
F0.12196846484724105
sI2450
F0.1224653634518063
sI1300
F0.11989537670752187
sI2200
F0.1342306222861605
sI1050
F0.10354847128646369
sI1950
F0.11592005827169326
sI1700
F0.1217652697815069
sI1450
F0.11139616149222781
sI2350
F0.13137962288688632
sI1200
F0.11350543436788091
sI2100
F0.12582380306304375
sI1850
F0.1209149852143523
sI1600
F0.12292221203743559
sI2500
F0.1262706329667475
sI1350
F0.12492213829384646
sI2250
F0.13240963111123788
sI1100
F0.12360876332640566
sI2000
F0.11751561015479417
sI1750
F0.12158529867668594
sI1500
F0.12450088298717077
sI2400
F0.14006273626917026
sI1250
F0.10894720255368075
sI2150
F0.1237008823025551
sI1000
F0.11224012009314005
sI1900
F0.12774200838660954
sI1650
F0.12261650443829027
sI1400
F0.12554258002495697
sI2300
F0.12612869485319134
sI1150
F0.11113718743870846
ssI1500
(dp21
I2050
F0.14240992162849894
sI1800
F0.13855943346194857
sI1550
F0.11650112397354541
sI2450
F0.14120633460423543
sI1300
F0.11712903249130013
sI2200
F0.12599016491256607
sI1050
F0.1015044605426226
sI1950
F0.12351581929129749
sI1700
F0.11902163007402963
sI1450
F0.11203124991962993
sI2350
F0.1256594231608098
sI1200
F0.11797410535313074
sI2100
F0.12160592933996804
sI1850
F0.12837316765087758
sI1600
F0.12236540034324937
sI2500
F0.14381803950510375
sI1350
F0.11997728361896906
sI2250
F0.12115102773219161
sI1100
F0.13770562299181685
sI2000
F0.13199287815303054
sI1750
F0.13443599955837318
sI1500
F0.13707239036474356
sI2400
F0.14156176711358995
sI1250
F0.11280901287582777
sI2150
F0.15323961561716298
sI1000
F0.09914835193148068
sI1900
F0.13071428168148197
sI1650
F0.1167739409327816
sI1400
F0.12682740355516867
sI2300
F0.1278557423242822
sI1150
F0.12850253067116338
ssI350
(dp22
I2050
F0.1341207196653481
sI1800
F0.12434673585443967
sI1550
F0.1166912953430596
sI2450
F0.12945960332422093
sI1300
F0.1189733233863179
sI2200
F0.12370131391127553
sI1050
F0.11231372625317748
sI1950
F0.12102883718257156
sI1700
F0.12540954412375857
sI1450
F0.1174665960472365
sI2350
F0.12818196819431735
sI1200
F0.1115079325307444
sI2100
F0.13895010749837267
sI1850
F0.13978392507669066
sI1600
F0.10655103439097999
sI2500
F0.13446912242940867
sI1350
F0.11060147496517347
sI2250
F0.13525115717440978
sI1100
F0.10362080653307704
sI2000
F0.12713702334091254
sI1750
F0.12802723079776096
sI1500
F0.1200038862208116
sI2400
F0.12435181676258855
sI1250
F0.12226219226599659
sI2150
F0.1220602424609617
sI1000
F0.10622886129911903
sI1900
F0.12014929144483641
sI1650
F0.12029154095460248
sI1400
F0.11660196214001539
sI2300
F0.12766276862034584
sI1150
F0.10798421970772785
ssI1250
(dp23
I2050
F0.1283058333996317
sI1800
F0.133615492558493
sI1550
F0.1327657843883438
sI2450
F0.13421373297902758
sI1300
F0.13515805521992977
sI2200
F0.14967200242934364
sI1050
F0.11695576719980302
sI1950
F0.13194824298455246
sI1700
F0.128567839623724
sI1450
F0.11645658381136165
sI2350
F0.13476139084726882
sI1200
F0.11560482798816475
sI2100
F0.1355612519666803
sI1850
F0.12744932597980516
sI1600
F0.12539682994804988
sI2500
F0.13493927224406102
sI1350
F0.14554003601947169
sI2250
F0.1092694826940438
sI1100
F0.1130475595417171
sI2000
F0.13870218138246998
sI1750
F0.1449006761544182
sI1500
F0.12885373235248676
sI2400
F0.14591524344874615
sI1250
F0.1196811988327143
sI2150
F0.12475236701224986
sI1000
F0.09887463729326029
sI1900
F0.11184742576081225
sI1650
F0.1129281081755939
sI1400
F0.12536722416685836
sI2300
F0.13440739213175953
sI1150
F0.12027502197802646
ssI100
(dp24
I2050
F0.1195871935088852
sI1800
F0.11225397721229652
sI1550
F0.10351335092014173
sI2450
F0.12721051865340852
sI1300
F0.09959115100703135
sI2200
F0.11529687040387948
sI1050
F0.08530292475125928
sI1950
F0.1167429724926352
sI1700
F0.10549292689383033
sI1450
F0.10375055737951464
sI2350
F0.11332936936292888
sI1200
F0.09751966701939184
sI2100
F0.11457120646277245
sI1850
F0.10798253096012841
sI1600
F0.10614721079447338
sI2500
F0.12956479084657366
sI1350
F0.09698978148932075
sI2250
F0.12323576527355735
sI1100
F0.09012656338499819
sI2000
F0.11850270379235306
sI1750
F0.11433079836144558
sI1500
F0.10109416512576924
sI2400
F0.114845091507667
sI1250
F0.10104068100747927
sI2150
F0.11143543668161064
sI1000
F0.08900589106543996
sI1900
F0.11525266335689524
sI1650
F0.11432153625845629
sI1400
F0.1034034447921068
sI2300
F0.11428329431785295
sI1150
F0.09539565772123007
ssI1000
(dp25
I2050
F0.11255998668344053
sI1800
F0.12569929591913767
sI1550
F0.1398953323193751
sI2450
F0.1502545160038211
sI1300
F0.11077629376804186
sI2200
F0.14093745497719187
sI1050
F0.10538106736837102
sI1950
F0.1205034832568348
sI1700
F0.12632861623909317
sI1450
F0.12104725165106198
sI2350
F0.12403736494572741
sI1200
F0.11581295145284437
sI2100
F0.1483960273033441
sI1850
F0.14066108068657548
sI1600
F0.10939061607000088
sI2500
F0.1336316971118102
sI1350
F0.12231015479830763
sI2250
F0.13110364710193537
sI1100
F0.11237430206363637
sI2000
F0.10071105055775607
sI1750
F0.12765546119176288
sI1500
F0.13218013627774722
sI2400
F0.13688615827603404
sI1250
F0.11805269829389956
sI2150
F0.11069957234412392
sI1000
F0.1373179786822241
sI1900
F0.12366459804716382
sI1650
F0.12271498116020077
sI1400
F0.1301494045339807
sI2300
F0.1406266773011118
sI1150
F0.11321829974106544
ssI750
(dp26
I2050
F0.13332398136658055
sI1800
F0.1278242086044871
sI1550
F0.1280364878083407
sI2450
F0.12413805679399963
sI1300
F0.10087687185249408
sI2200
F0.1333342708131963
sI1050
F0.11819754830446087
sI1950
F0.1329364761785477
sI1700
F0.13619624860990137
sI1450
F0.12288123980028837
sI2350
F0.124565651364498
sI1200
F0.12754906232407434
sI2100
F0.11857724509339043
sI1850
F0.1321315580329421
sI1600
F0.12607838461174423
sI2500
F0.13938571807158717
sI1350
F0.10388311877076632
sI2250
F0.1252278647492505
sI1100
F0.11309914379836356
sI2000
F0.12371905305545734
sI1750
F0.12352250194810249
sI1500
F0.11594438481294723
sI2400
F0.12872814102062272
sI1250
F0.1204215600606413
sI2150
F0.11691243912013839
sI1000
F0.12048264460358216
sI1900
F0.12877031264370964
sI1650
F0.11695635059533646
sI1400
F0.11008859417762978
sI2300
F0.12055715403318856
sI1150
F0.11048325328173039
ssI500
(dp27
I2050
F0.1270117900644807
sI1800
F0.12349379691975233
sI1550
F0.12505362472302628
sI2450
F0.12182578852008351
sI1300
F0.11919210892862298
sI2200
F0.13992111309191366
sI1050
F0.1098487889763755
sI1950
F0.1278822823663565
sI1700
F0.12032329475675602
sI1450
F0.1103533439012873
sI2350
F0.11971281015095143
sI1200
F0.11735861783151862
sI2100
F0.12476163393122305
sI1850
F0.1213911287407594
sI1600
F0.13111349764217994
sI2500
F0.13278288040701505
sI1350
F0.10807995487310158
sI2250
F0.12983202060536742
sI1100
F0.11027990055013545
sI2000
F0.12116219892256551
sI1750
F0.12265063914617867
sI1500
F0.11898509583865984
sI2400
F0.13199257134090295
sI1250
F0.1127884662446271
sI2150
F0.13333794158930043
sI1000
F0.11231103476513647
sI1900
F0.13119697727230017
sI1650
F0.12093980594013887
sI1400
F0.11209270317721258
sI2300
F0.12420204730109197
sI1150
F0.10039418716554963
ssI1400
(dp28
I2050
F0.135213498088091
sI1800
F0.12881034742370465
sI1550
F0.11545747984652395
sI2450
F0.13227550618013734
sI1300
F0.1255567619217305
sI2200
F0.14352917597051404
sI1050
F0.09882276639630462
sI1950
F0.12493347699524197
sI1700
F0.1396432384802474
sI1450
F0.12728550364761382
sI2350
F0.1244503482579952
sI1200
F0.12800321691744382
sI2100
F0.13062385668659998
sI1850
F0.12131969207220243
sI1600
F0.13689555963357494
sI2500
F0.1377060334481766
sI1350
F0.14225423039388968
sI2250
F0.1270642409767748
sI1100
F0.11872536461658809
sI2000
F0.12026887325948458
sI1750
F0.13801040876708526
sI1500
F0.12113268782233161
sI2400
F0.1455904187024133
sI1250
F0.11366204005612927
sI2150
F0.14146655098291844
sI1000
F0.12225500209655
sI1900
F0.13031364344820173
sI1650
F0.12908687965399696
sI1400
F0.11280807424350416
sI2300
F0.13190137568533158
sI1150
F0.1226563172357546
ssI250
(dp29
I2050
F0.12150710303697024
sI1800
F0.11027765318900842
sI1550
F0.10931362272659789
sI2450
F0.11758860523406187
sI1300
F0.10417461984544324
sI2200
F0.12494290349272079
sI1050
F0.09778799169866534
sI1950
F0.11790865108597424
sI1700
F0.11501637494150378
sI1450
F0.09952787021175355
sI2350
F0.1268082009180664
sI1200
F0.10389014460605543
sI2100
F0.12803512071921577
sI1850
F0.11703995429190016
sI1600
F0.11552868285451075
sI2500
F0.13215050174586257
sI1350
F0.1100709985137148
sI2250
F0.133780953651802
sI1100
F0.10524838592544615
sI2000
F0.10516325790492344
sI1750
F0.12343843252339885
sI1500
F0.11767143801588131
sI2400
F0.12431908822976878
sI1250
F0.1105777588900918
sI2150
F0.1210061572829582
sI1000
F0.09725905631565453
sI1900
F0.1220960018360322
sI1650
F0.12010562021453323
sI1400
F0.10336895617589552
sI2300
F0.12531677733519064
sI1150
F0.10404440064293699
ssI1150
(dp30
I2050
F0.11904083039878664
sI1800
F0.13558371403014718
sI1550
F0.118338507736756
sI2450
F0.12401812746449487
sI1300
F0.11471195188189022
sI2200
F0.13361104201444718
sI1050
F0.12508797460664595
sI1950
F0.13127182127609963
sI1700
F0.1404297823275444
sI1450
F0.12714577183510375
sI2350
F0.13573273291140436
sI1200
F0.12374289424547091
sI2100
F0.12842293284265102
sI1850
F0.13757467892952466
sI1600
F0.12941810597028286
sI2500
F0.12210998720623151
sI1350
F0.1296927558100166
sI2250
F0.11949173107632018
sI1100
F0.12737041875602073
sI2000
F0.12943627574554342
sI1750
F0.12957081750906652
sI1500
F0.11859291134944745
sI2400
F0.12270863033247653
sI1250
F0.130795971180848
sI2150
F0.1345744607516871
sI1000
F0.1141972543973649
sI1900
F0.11770756596738079
sI1650
F0.12580938952233076
sI1400
F0.11576832369651756
sI2300
F0.1260305450711379
sI1150
F0.11360208104200377
ss.