(dp0
I1025
F5.0137888226040536e-06
sI900
F1.0148904671353018e-05
sI775
F2.7010321427866634e-05
sI650
F8.858190100082913e-05
sI525
F0.00014566469953445144
sI400
F0.00029973894753015847
sI1300
F4.7168183797595585e-07
sI1175
F2.417591566618274e-06
sI1050
F5.5042719097134995e-06
sI925
F1.0406770082222552e-05
sI800
F2.8915505023006928e-05
sI675
F4.4147771525171464e-05
sI550
F0.00013313557957358863
sI425
F0.0005960950450056572
sI300
F0.0027122516475513803
sI1200
F2.292036157075021e-06
sI1075
F9.538797026224212e-06
sI950
F1.2627204796250025e-05
sI825
F1.591618756891465e-05
sI700
F6.172245649238434e-05
sI575
F0.00010249125832240175
sI450
F0.0011030052827337503
sI325
F0.0005211689653188652
sI1225
F1.7089104612574097e-06
sI1100
F6.356330077537569e-06
sI975
F5.60816391663472e-06
sI850
F1.2716220897468853e-05
sI725
F3.697114122637761e-05
sI600
F5.7301625099752965e-05
sI475
F0.00017606075137805406
sI350
F0.00023768621650256317
sI1250
F2.502752161269068e-06
sI1125
F4.56529751966538e-06
sI1000
F7.983588478226006e-06
sI875
F1.4793236502181073e-05
sI750
F1.779929170292748e-05
sI625
F0.00011761322958443286
sI500
F0.00018774810660443273
sI375
F0.0004954912419878704
sI1275
F2.0001800276795847e-06
sI1150
F3.4576383378774637e-06
s.