(dp0
I2050
(dp1
I900
F0.0
sI1800
F3.7037261953862784e-06
sI10
F4.57586607828967e-06
sI400
F0.0
sI1300
F3.845491125553896e-06
sI150
F0.0
sI25
F0.0
sI1950
F0.0
sI800
F1.222798691969515e-05
sI1700
F0.0
sI300
F4.178226716269898e-06
sI1200
F8.055875117068253e-06
sI50
F5.980369963454324e-06
sI1850
F0.0
sI700
F3.158197801705896e-06
sI1600
F8.832038119722752e-06
sI200
F6.272131338441045e-06
sI1100
F0.0
sI2000
F2.4806681663638787e-06
sI2040
F5.1076495732133805e-06
sI1750
F9.024811196756989e-06
sI600
F2.952603679212111e-06
sI1500
F4.372210592144699e-06
sI100
F1.2104132704412229e-05
sI1000
F4.391185100270048e-06
sI2025
F3.5902462611622254e-06
sI1900
F0.0
sI500
F1.9916761090766247e-05
sI1400
F8.932371239284197e-06
ssI900
(dp2
I800
F0.0020953278771525083
sI200
F0.0014331452456820164
sI10
F2.9585824080890006e-05
sI300
F0.003031382043338428
sI400
F0.002234469126735741
sI500
F0.0024610210254618417
sI600
F0.0031864504268174663
sI890
F0.005148439509320312
sI700
F0.0010780459352166688
ssI1800
(dp3
I900
F2.3729967425839693e-06
sI10
F1.24870360133718e-05
sI1550
F0.0
sI400
F1.6242224192293346e-05
sI1300
F8.123367040829814e-06
sI150
F0.0
sI25
F1.7092237272846463e-05
sI800
F8.056375803894687e-06
sI1700
F0.0
sI300
F9.333634430842668e-06
sI1200
F0.0
sI50
F0.0
sI700
F1.736678412338096e-05
sI1600
F6.515565762703296e-06
sI200
F1.3574465246490597e-05
sI1100
F9.558692399824419e-06
sI1750
F3.5346698754431e-05
sI600
F7.631109537459447e-06
sI1500
F2.982534625292655e-05
sI100
F1.3615767501563196e-05
sI1000
F1.4349680453503549e-05
sI1775
F1.2012365991809595e-05
sI1650
F2.5445167191222792e-05
sI500
F1.863612273256956e-05
sI1400
F1.4715650187414788e-05
sI1790
F0.0
ssI1550
(dp4
I900
F2.4211277276634933e-05
sI10
F0.0
sI400
F8.45542121654966e-05
sI1300
F4.5017707189713215e-05
sI150
F3.164745448366553e-05
sI25
F3.043955838769113e-05
sI800
F5.9086339147658114e-05
sI1450
F0.00015826528110260017
sI300
F6.824965209480983e-05
sI1540
F0.0001161474632672871
sI1200
F0.0001412753899883117
sI50
F0.0
sI700
F9.735597661251826e-07
sI1350
F8.032119283818308e-05
sI200
F0.0
sI1100
F0.0
sI600
F3.74921391906498e-05
sI1500
F0.0001501053414664222
sI1250
F0.0
sI100
F3.9475635245546606e-05
sI1000
F0.0
sI500
F0.0
sI1525
F0.0001895219190378822
sI1400
F3.278760407437564e-05
ssI2450
(dp5
I900
F1.4702584847184827e-06
sI1800
F2.760952239737659e-07
sI10
F0.0
sI400
F1.1204986280494337e-06
sI1300
F3.142543890921538e-07
sI150
F0.0
sI2200
F0.0
sI25
F0.0
sI800
F0.0
sI1700
F0.0
sI300
F0.0
sI2350
F6.119510478636756e-07
sI1200
F0.0
sI2440
F8.471932909831744e-07
sI50
F0.0
sI2100
F0.0
sI700
F6.937177546491305e-07
sI1600
F1.1757916207254462e-06
sI200
F7.633206199948359e-07
sI2250
F1.4813890553021541e-06
sI1100
F6.003786981467725e-07
sI2000
F0.0
sI600
F1.3646228135819137e-07
sI1500
F6.738233199345426e-07
sI2400
F1.6429539482806781e-06
sI100
F3.151676476271937e-07
sI2150
F1.929470451888628e-06
sI1000
F1.4806642714019558e-06
sI1900
F6.285628796782626e-07
sI500
F4.3748474115321774e-07
sI1400
F0.0
sI2425
F8.46155015618512e-07
sI2300
F9.925726185506655e-07
ssI1300
(dp6
I800
F4.4433746483727486e-05
sI1200
F0.0009324984671573915
sI1250
F0.00030850023868096737
sI100
F0.00034202553417388723
sI200
F0.00041665384245528485
sI1100
F0.0006664916618534994
sI10
F0.0
sI300
F0.00014366483638013353
sI400
F0.00024183092108735112
sI1000
F0.0007037969413033648
sI50
F0.0
sI500
F0.00026288975289848
sI1290
F0.00020696022790129642
sI150
F0.0
sI600
F0.0003224039008486477
sI25
F0.0
sI900
F0.00013414321894750653
sI1275
F8.5016583979616e-05
sI700
F0.0002463143677740471
sI1050
F0.000759097598700181
sI1150
F0.000517083861398191
ssI2200
(dp7
I2050
F3.2721701442142963e-06
sI900
F2.2912400552647125e-06
sI1800
F0.0
sI10
F2.42511656251162e-06
sI2190
F5.295887102031747e-06
sI400
F0.0
sI1300
F0.0
sI150
F0.0
sI25
F0.0
sI1950
F3.39304261130258e-06
sI800
F2.5606571497314953e-06
sI1700
F9.197469041405222e-07
sI300
F2.867699880302905e-06
sI1200
F3.044022766308618e-06
sI50
F0.0
sI2100
F0.0
sI700
F4.817213074138289e-06
sI1600
F3.7704753870800043e-06
sI200
F1.661151972324574e-06
sI1100
F2.1997883235360602e-06
sI2000
F1.4794498705834207e-06
sI600
F2.702606790623963e-06
sI1500
F2.763111183526267e-06
sI100
F0.0
sI2150
F2.863509069642139e-06
sI1000
F2.682438031170054e-06
sI1900
F5.58333972064634e-06
sI500
F0.0
sI1400
F0.0
sI2175
F0.0
ssI1050
(dp8
I800
F0.0010895964798224465
sI1025
F0.002051681743393463
sI100
F0.0012986804287487999
sI950
F0.0008979125100722973
sI1040
F0.0011754604974681328
sI200
F0.0010282041841191492
sI10
F0.0
sI300
F0.001327319133839564
sI850
F0.001154648049349298
sI750
F0.0005146393028040854
sI400
F0.0007607882113160898
sI1000
F0.001278215374303694
sI50
F0.00030429684141420064
sI500
F0.0013253747161890781
sI150
F0.0006727890466382996
sI600
F0.001065149127463148
sI25
F0.0
sI900
F0.0006392671932181622
sI700
F0.0016929388043989977
ssI1950
(dp9
I900
F0.0
sI1925
F1.4372026467187658e-05
sI1800
F1.5370976559529277e-05
sI10
F7.58032517297488e-06
sI400
F0.0
sI1300
F4.966284379537078e-06
sI150
F3.6103239837403863e-06
sI25
F4.188421975391786e-06
sI800
F3.1348615039544914e-06
sI1700
F2.4541979856785843e-06
sI300
F4.889491664197821e-06
sI1200
F1.075177602231013e-05
sI50
F0.0
sI1850
F8.851048022965947e-06
sI700
F1.4796202535141626e-05
sI1600
F0.0
sI200
F1.3497374143059946e-05
sI1100
F9.128768365207516e-06
sI1750
F7.86819188258478e-06
sI600
F1.4806088199195153e-05
sI1500
F1.7763571114791997e-05
sI100
F4.228457513445334e-06
sI1000
F5.290943756578596e-06
sI1900
F1.0135624136312938e-05
sI1650
F1.2317816024924815e-05
sI500
F4.536781970386191e-06
sI1400
F9.374297486692117e-06
sI1940
F4.014135507456858e-06
ssI800
(dp10
I200
F0.0025208446420415392
sI10
F0.0
sI300
F0.0012627296862062199
sI400
F0.007173857999361734
sI500
F0.009350199765063745
sI790
F0.011476377764876516
sI600
F0.007908189703677253
sI700
F0.012686056560747162
ssI1700
(dp11
I900
F4.1493090707341084e-05
sI10
F1.1110641971135345e-05
sI1675
F9.487809762475026e-06
sI1550
F6.225967387534451e-05
sI400
F5.604563434585084e-05
sI1300
F9.656477973616844e-06
sI150
F1.974811530459382e-06
sI25
F0.0
sI1690
F4.8647496157822025e-05
sI800
F0.0
sI1450
F5.405495242467872e-05
sI300
F0.0
sI1200
F5.39818542287305e-05
sI50
F0.0
sI700
F5.196480114457485e-05
sI1600
F6.131282498690018e-05
sI200
F6.158796502560603e-05
sI1100
F2.3022665714815194e-05
sI600
F4.114080967999013e-05
sI1500
F1.5185971976766972e-05
sI100
F1.895288240225413e-05
sI1000
F3.1086328405753465e-05
sI1650
F6.559706665219647e-05
sI500
F0.0
sI1400
F0.0
ssI1450
(dp12
I900
F7.44323724313025e-05
sI10
F0.0
sI400
F0.0001498831585549951
sI1425
F0.0005854328024295423
sI1300
F0.0
sI150
F0.00010156522436493769
sI25
F0.0
sI800
F7.194918467426183e-05
sI300
F0.0
sI1200
F0.00012955960548791925
sI50
F0.0
sI700
F8.313713066502115e-05
sI1440
F0.0001672840966013954
sI1350
F7.240827639467017e-05
sI200
F0.00013570197300387306
sI1100
F4.5956995127494546e-05
sI600
F6.397348320196324e-05
sI1250
F0.00016684316774239705
sI100
F0.0
sI1000
F4.694974789317777e-05
sI500
F0.0001398193673136258
sI1400
F0.00022934512217845412
sI1150
F0.0
ssI2350
(dp13
I2050
F6.635251698730856e-07
sI900
F1.1761504222044395e-06
sI1800
F1.6002896323006383e-06
sI10
F0.0
sI400
F0.0
sI1300
F1.4205946670384394e-06
sI2325
F9.29017040915326e-07
sI150
F2.1144838616736593e-06
sI2200
F0.0
sI25
F0.0
sI800
F1.2485877565895934e-06
sI1700
F1.0237567792869598e-06
sI300
F0.0
sI1200
F6.344021469431936e-07
sI50
F7.62889811912774e-07
sI2100
F1.1834606481406053e-06
sI700
F1.0757680204541244e-06
sI1600
F3.0388811592915807e-06
sI200
F6.358314349949938e-07
sI2250
F0.0
sI1100
F0.0
sI2000
F1.011338442671412e-06
sI600
F7.828612540400676e-07
sI2340
F1.4258067311409348e-06
sI1500
F6.721918104529099e-07
sI100
F0.0
sI2150
F0.0
sI1000
F1.3903021246280103e-06
sI1900
F1.2919450561760124e-06
sI500
F1.1928226374473758e-06
sI1400
F5.46368046253574e-10
sI2300
F0.0
ssI1200
(dp14
I800
F0.0003552574747600376
sI100
F0.0002605643773939391
sI950
F0.00017860666192597225
sI1190
F0.0012956318280378507
sI200
F9.5204322731268e-06
sI1100
F0.0005269417741292229
sI10
F0.0
sI300
F0.0007654818093321106
sI400
F0.00011498029795251906
sI1000
F0.000529113594735805
sI50
F0.0
sI500
F0.0003005026879990471
sI150
F0.0003889595580246303
sI1175
F0.0005939821870382876
sI600
F0.0003756193075865036
sI25
F0.0002044166032928154
sI900
F0.0006256143695579794
sI700
F0.00034076339143507126
sI1050
F0.0005607536940787701
sI1150
F0.0005815377799493388
ssI2100
(dp15
I2050
F1.092352349519625e-05
sI900
F0.0
sI1800
F4.057961117366275e-06
sI10
F0.0
sI400
F7.99608949320249e-06
sI1300
F0.0
sI150
F1.0780335277425552e-05
sI25
F0.0
sI2075
F8.093562538222313e-06
sI1950
F0.0
sI800
F0.0
sI1700
F6.639661390881033e-06
sI2090
F5.8524298034623655e-06
sI300
F0.0
sI1200
F0.0
sI50
F0.0
sI1850
F4.233494472243795e-06
sI700
F4.259510537745386e-06
sI1600
F0.0
sI200
F3.620297289927566e-06
sI1100
F0.0
sI2000
F0.0
sI600
F0.0
sI1500
F0.0
sI100
F0.0
sI1000
F1.394334976715372e-06
sI1900
F0.0
sI500
F5.3426576708364735e-06
sI1400
F1.638671881152353e-05
ssI1850
(dp16
I900
F0.0
sI1800
F1.1130465659687073e-05
sI10
F0.0
sI1550
F2.0067625816328893e-05
sI400
F9.218481107906085e-06
sI1300
F2.1328878573175118e-05
sI150
F6.329246735554416e-06
sI25
F0.0
sI800
F5.876387364936119e-06
sI1825
F6.787807117557924e-06
sI1700
F1.6365958349164166e-05
sI300
F8.365273929790039e-06
sI1200
F0.0
sI50
F0.0
sI700
F1.3686615210115338e-05
sI1600
F6.201830162641056e-06
sI200
F1.1991363906162224e-05
sI1100
F8.88068192014025e-06
sI1750
F5.750799283634527e-06
sI600
F1.1708761574439727e-05
sI1500
F1.8454435231165056e-05
sI1840
F3.0319772827390984e-08
sI100
F0.0
sI1000
F8.905522316006051e-06
sI1650
F0.0
sI500
F5.90693604959245e-06
sI1400
F4.4125617459794584e-06
ssI1600
(dp17
I900
F3.254897904404426e-05
sI10
F3.232610504386684e-05
sI1550
F0.0
sI400
F2.8565219068451634e-05
sI1300
F2.9047910293771166e-05
sI150
F2.569469095676714e-05
sI25
F0.0
sI800
F0.0
sI1575
F6.769811437474744e-05
sI1450
F2.1543311352819625e-05
sI300
F0.0
sI1200
F8.18534895463626e-05
sI50
F0.0
sI1590
F7.380336592989919e-05
sI700
F7.246607145123757e-05
sI1350
F6.184722421350523e-05
sI200
F5.1089521607622e-05
sI1100
F7.374793940290338e-05
sI600
F0.0
sI1500
F2.9232781570787785e-05
sI100
F1.0746205403291667e-05
sI1000
F6.774140183665377e-05
sI500
F2.0951169819364886e-05
sI1400
F7.287719979012402e-05
ssI2500
(dp18
I900
F0.0
sI1800
F0.0
sI10
F0.0
sI400
F8.615522355243174e-07
sI2450
F5.096393342057421e-07
sI1300
F8.150220819229203e-07
sI150
F1.207927134550389e-06
sI2200
F0.0
sI25
F0.0
sI800
F0.0
sI1700
F2.3299725891936261e-07
sI2475
F0.0
sI300
F1.7301278401212453e-06
sI2350
F0.0
sI1200
F0.0
sI50
F0.0
sI2100
F0.0
sI2490
F1.4136552101092682e-06
sI700
F9.426137242305395e-07
sI1600
F0.0
sI200
F5.091450725788718e-07
sI2250
F0.0
sI1100
F1.6676287241997796e-06
sI2000
F0.0
sI600
F0.0
sI1500
F1.1201049850452843e-06
sI2400
F1.6371426661937875e-07
sI100
F5.271446988526238e-07
sI1000
F0.0
sI1900
F4.74113300804215e-07
sI500
F5.297624006884041e-07
sI1400
F3.462285268404717e-07
sI2300
F5.887915727820848e-07
ssI1350
(dp19
I900
F0.0002094208929458485
sI10
F0.0
sI400
F0.0002357722535084693
sI1300
F0.00012325521067853878
sI150
F0.00012136899120108082
sI25
F0.0
sI1050
F0.0002828668583060581
sI800
F6.680488096089673e-05
sI300
F0.0001332752482062237
sI1325
F0.00025005386224906823
sI1200
F0.00038434272833790336
sI50
F0.0
sI1340
F0.00010221059037301503
sI200
F0.0
sI1100
F7.010013872014668e-05
sI600
F0.00012237996271328042
sI1250
F0.00012132339151664833
sI100
F0.00012632680774250703
sI1000
F0.00019514388076768505
sI700
F0.00010653584852041094
sI500
F0.0002042311418967568
sI1150
F0.00021864331978661453
ssI2250
(dp20
I2240
F6.898837812282247e-06
sI2050
F1.7513376599465909e-06
sI900
F0.0
sI1800
F2.020744203354201e-06
sI10
F1.6687003751661222e-06
sI400
F2.8354030508821457e-06
sI1300
F2.1524074576119353e-06
sI150
F0.0
sI2200
F5.033108285283037e-06
sI25
F0.0
sI1950
F1.8991544032147445e-06
sI800
F0.0
sI1700
F9.781523052833542e-07
sI300
F0.0
sI1200
F2.0852471206343457e-06
sI2225
F0.0
sI50
F0.0
sI2100
F1.3963592569560193e-06
sI700
F0.0
sI1600
F8.966030236464e-07
sI200
F0.0
sI1100
F5.334722843783437e-06
sI2000
F3.981158868026534e-06
sI600
F3.3188014632428463e-06
sI1500
F4.359095197662351e-06
sI100
F2.0245345424050647e-06
sI2150
F0.0
sI1000
F2.403814768722871e-08
sI1900
F0.0
sI500
F3.710586270356559e-06
sI1400
F0.0
ssI1100
(dp21
I800
F0.0013616271609196177
sI1090
F0.0011242622089618318
sI100
F0.0005319754412796067
sI950
F0.00046070267933000155
sI200
F0.0005167546740361983
sI10
F0.00012690547554212894
sI300
F0.0006271929144263211
sI850
F0.0012220665196991825
sI400
F0.00037352123925067236
sI1000
F0.0007107100477353156
sI50
F0.0001527417182395877
sI1075
F0.001011599269271303
sI500
F0.0011344148249572458
sI150
F0.0006192624475165324
sI600
F0.001264763622613577
sI25
F0.0
sI900
F0.0002770877942065905
sI700
F0.0012059559888022203
sI1050
F0.0015450955527501217
ssI2000
(dp22
I900
F4.941705890512719e-06
sI1800
F7.941358594568445e-06
sI10
F0.0
sI400
F0.0
sI1300
F0.0
sI150
F0.0
sI25
F0.0
sI1950
F1.988761031287723e-06
sI800
F0.0
sI1700
F0.0
sI300
F1.767476725122027e-05
sI1200
F6.481694620978347e-06
sI50
F0.0
sI1975
F0.0
sI1850
F0.0
sI700
F0.0
sI1600
F5.081335986054286e-06
sI1990
F5.129126719599287e-06
sI200
F7.638223886245933e-06
sI1100
F4.82498196722762e-06
sI1750
F7.645656101300807e-06
sI600
F0.0
sI1500
F7.65292049048411e-06
sI100
F5.832519439178969e-06
sI1000
F0.0
sI1900
F2.1067879216922988e-05
sI500
F5.204169594749875e-06
sI1400
F0.0
ssI1750
(dp23
I900
F0.0
sI10
F5.988062170462105e-06
sI1550
F2.0427763035653592e-05
sI400
F1.2650595436421664e-05
sI1300
F5.0767645352256955e-05
sI150
F1.2177159123339654e-05
sI25
F0.0
sI800
F1.129016349351893e-05
sI1700
F2.2372869461629073e-05
sI1450
F0.0
sI300
F2.1150846072460318e-05
sI1200
F5.719089721792615e-05
sI50
F0.0
sI700
F7.268798947163445e-06
sI1725
F3.3578781068520716e-05
sI1600
F5.4013742901076295e-05
sI200
F4.801050944316285e-05
sI1740
F1.1153687521720476e-05
sI1100
F0.0
sI600
F9.419394912692997e-06
sI1500
F1.2660828585224368e-05
sI100
F0.0
sI1000
F1.9107304625294074e-05
sI1650
F1.4372051056403075e-05
sI500
F1.4025114362744005e-05
sI1400
F1.262406893195543e-05
ssI1500
(dp24
I900
F2.3380379609857996e-05
sI10
F4.802947685261412e-05
sI400
F5.360984557979946e-05
sI1300
F0.0001962333868573566
sI150
F0.0
sI25
F0.0
sI800
F2.315789897334069e-05
sI1450
F9.187623583142767e-05
sI300
F0.00019037397307394748
sI1200
F7.187510095531587e-05
sI50
F0.0
sI700
F6.995966581504421e-05
sI1475
F0.0001349988488663091
sI1350
F2.356710027459353e-05
sI200
F0.0002942710863036008
sI1100
F0.00013628279008323803
sI1490
F0.0
sI600
F0.00014876679913891064
sI1250
F0.00012775597466495995
sI100
F4.1117649519655447e-05
sI1000
F0.0001071229028216072
sI500
F4.642648818312527e-05
sI1400
F0.00010620035884162318
ssI2400
(dp25
I900
F1.2042874984929315e-06
sI1800
F8.930745716445825e-07
sI10
F0.0
sI400
F1.2391030549794595e-06
sI1300
F8.107283488787596e-07
sI150
F0.0
sI2200
F0.0
sI25
F0.0
sI800
F0.0
sI1700
F1.0253406050756286e-06
sI300
F4.86681512284361e-07
sI2350
F1.1997275837180406e-06
sI1200
F0.0
sI50
F0.0
sI2100
F1.0458667766488181e-06
sI700
F5.630193746910383e-07
sI1600
F3.390079192554307e-06
sI2375
F7.343510856591741e-07
sI200
F1.9460694860820236e-06
sI2250
F1.123698601189898e-06
sI1100
F0.0
sI2000
F1.2754430468428448e-06
sI2390
F0.0
sI600
F8.164135944537253e-07
sI1500
F6.927951431842049e-07
sI100
F0.0
sI2150
F1.230574624250368e-06
sI1000
F0.0
sI1900
F9.749190227734041e-07
sI500
F0.0
sI1400
F0.0
sI2300
F0.0
ssI1250
(dp26
I800
F0.00012248367568732567
sI1200
F0.0002095414302822513
sI100
F0.0002493647995843118
sI950
F9.894820687458473e-05
sI200
F0.00015089782798168505
sI1100
F0.0008336736586348272
sI10
F0.00013658722106362254
sI300
F0.00037409893391613064
sI1240
F0.0005110098217897057
sI400
F0.00014583989351217653
sI1000
F0.0
sI50
F0.0
sI500
F0.00021921479082418927
sI150
F0.000564108928311055
sI1225
F0.00019009318854405676
sI600
F0.00046285518148534934
sI25
F0.0
sI900
F0.0003811035084504376
sI700
F0.0004988158275141656
sI1050
F0.0
sI1150
F0.0
ssI2150
(dp27
I2050
F0.0
sI900
F0.0
sI1800
F3.6755458431129033e-06
sI10
F0.0
sI400
F0.0
sI1300
F0.0
sI150
F0.0
sI25
F0.0
sI1950
F2.4681436613955106e-06
sI800
F6.072401695321128e-06
sI1700
F3.2038103423602856e-06
sI2140
F2.3887338285852786e-06
sI300
F2.1191097338402666e-06
sI1200
F0.0
sI50
F7.231748006237408e-06
sI2100
F1.1606200996359896e-05
sI1850
F2.9850676538530544e-06
sI700
F0.0
sI1600
F6.988725594759891e-06
sI200
F0.0
sI1100
F2.756578536998288e-06
sI2125
F0.0
sI2000
F2.2792939744093522e-07
sI600
F2.2866386855421785e-06
sI1500
F3.3664624518254647e-06
sI100
F0.0
sI1000
F6.711404443500495e-06
sI1900
F8.302963588460519e-07
sI500
F2.774451100773463e-06
sI1400
F4.849653532876961e-06
ssI1000
(dp28
I800
F0.0027002793380658833
sI100
F0.0012935835905482562
sI950
F0.0016049836898114878
sI200
F0.0007472580066040021
sI10
F0.0002864373127232688
sI300
F0.0016557870617774067
sI850
F0.0009695894778184366
sI750
F0.0011441749617349369
sI975
F0.0017067311152812053
sI400
F0.0018865032450567823
sI50
F0.00014503655453310363
sI500
F0.0013155036202284894
sI150
F0.001391692338407865
sI600
F0.0009579922333938037
sI25
F0.0006064068554622903
sI900
F0.0025660447075117948
sI700
F0.0010968831944512631
sI990
F0.001026653470348482
ssI1900
(dp29
I900
F1.0356006448829992e-05
sI1800
F1.0975478966592747e-05
sI10
F0.0
sI400
F0.0
sI1300
F9.196893621705955e-06
sI150
F3.926051111542803e-06
sI25
F0.0
sI800
F1.1448463636389763e-05
sI1700
F1.876175949115665e-05
sI300
F8.527485478098823e-06
sI1200
F1.8971712033195004e-05
sI50
F5.61339210706179e-06
sI1850
F6.536401142438356e-06
sI700
F6.833044720043029e-06
sI1600
F2.3428927592296258e-05
sI200
F1.6241162069966188e-05
sI1100
F1.1685379270922173e-05
sI1875
F1.408581623627843e-05
sI1750
F1.886913771405183e-05
sI600
F1.3852672109229237e-05
sI1500
F1.5138406075259262e-05
sI1890
F1.5891025261585874e-05
sI100
F2.3376047963625514e-05
sI1000
F7.00710690259963e-06
sI1650
F0.0
sI500
F1.2170022809804622e-05
sI1400
F1.0046612820214884e-05
ssI1650
(dp30
I900
F0.0
sI10
F1.2335586854871559e-05
sI1550
F2.5159523120287493e-05
sI400
F0.0
sI1300
F1.8631218260887945e-05
sI150
F2.4175773710942114e-05
sI25
F0.0
sI800
F3.1426396951574955e-06
sI1450
F0.00011125496773750358
sI300
F3.931195621403236e-05
sI1200
F5.835772304091753e-05
sI50
F0.0
sI700
F2.0409792995073958e-05
sI1600
F3.799180549126579e-05
sI1350
F3.568027368733963e-05
sI200
F4.243503060759605e-05
sI1100
F0.0
sI600
F1.0743239904746553e-06
sI1625
F8.656572082135275e-06
sI1500
F2.852660391501924e-05
sI100
F0.0
sI1000
F1.8893231180740604e-05
sI1640
F1.545917444462311e-05
sI500
F4.084731313158622e-05
sI1400
F3.8918972394304186e-05
ssI1400
(dp31
I900
F0.0001531957647916127
sI10
F0.0
sI400
F0.0
sI1300
F0.0001791964069394833
sI150
F0.00024033617850119894
sI25
F0.0
sI800
F0.000296063279101448
sI300
F0.00011751953366417752
sI1200
F0.00015680443997874202
sI50
F0.0
sI700
F0.0004365245851681377
sI1350
F0.0
sI200
F0.00013656507794345576
sI1100
F8.84808495133892e-05
sI600
F0.0
sI1375
F0.00019445269509088997
sI1250
F0.00017356195171617717
sI100
F0.0
sI1000
F0.0
sI1390
F0.0003608392837810174
sI500
F0.00010054138010440802
sI1150
F0.00016631487966229812
ssI2300
(dp32
I2050
F0.0
sI900
F1.7641850500778014e-06
sI1800
F1.2595938294035618e-06
sI10
F1.3396375060194362e-06
sI400
F1.0367695311262186e-06
sI1300
F1.6272236860164138e-06
sI150
F1.5987060673199152e-06
sI2200
F1.6366014749943876e-06
sI25
F0.0
sI800
F0.0
sI1700
F8.633556072301504e-07
sI300
F4.082361443803976e-06
sI1200
F3.0227205707596392e-06
sI50
F0.0
sI2100
F2.6224666705415767e-06
sI700
F0.0
sI1600
F1.4501029337574305e-06
sI200
F0.0
sI2250
F1.546677826944452e-06
sI1100
F0.0
sI2000
F0.0
sI600
F1.768101439616422e-06
sI1500
F2.9701819870321444e-06
sI2275
F0.0
sI100
F0.0
sI2150
F0.0
sI1000
F1.4644559957067307e-06
sI1900
F1.0870520294227053e-06
sI2290
F0.0
sI500
F0.0
sI1400
F2.962602238832511e-06
ssI1150
(dp33
I800
F0.00022757525161539165
sI1140
F0.0005462031858548965
sI100
F0.00041821607421674284
sI950
F0.0003137276666369158
sI200
F0.0002811705433906347
sI1100
F0.0012464287732695503
sI10
F0.00012606084668693798
sI300
F1.5397431045335525e-05
sI850
F0.0006458402583399168
sI400
F0.000598074793569914
sI1000
F0.0007370845604792431
sI50
F2.632111551427013e-05
sI500
F0.00026588877222812453
sI150
F0.00039956215544523205
sI600
F8.613942347544469e-05
sI25
F0.00017902654637080433
sI900
F0.0007261365660718112
sI700
F0.0008362026311194152
sI1050
F0.0006599755969642425
sI1125
F0.001053696334907242
ss.