(dp0
I900
(dp1
I800
F0.008722843820667849
sI100
F0.009578359894810208
sI200
F0.009976377204841388
sI10
F0.010497463130979273
sI75
F0.010196050045942883
sI300
F0.009793112974104252
sI750
F0.006850641288225748
sI400
F0.010681631736571155
sI50
F0.010303136550630537
sI500
F0.01015801972722599
sI600
F0.01062361889909333
sI25
F0.013920904957449772
sI700
F0.007327798109120824
ssI650
(dp2
I450
F0.06615060981429989
sI500
F0.05783005702185252
sI550
F0.07233382983663282
ssI400
(dp3
I200
F1.1167228780743053
sI300
F1.2222975087318215
sI10
F1.1871955989278855
sI100
F1.178413249683585
sI250
F0.9564185443424859
ssI1300
(dp4
I800
F0.0006110530011704373
sI1200
F0.0005235166342318794
sI100
F0.0005926699303926393
sI200
F0.0006745474341675085
sI1100
F0.0004353987404709435
sI10
F0.0007093709247372515
sI75
F0.000624837582907509
sI300
F0.0006611424844911281
sI400
F0.0007417286493703989
sI1000
F0.0006173332596299463
sI50
F0.0006987081106824962
sI500
F0.000739496256295779
sI600
F0.0007280361569827085
sI25
F0.0006987234711199013
sI900
F0.0006275199064661183
sI700
F0.0007085949757615725
sI1150
F0.0004682284527340617
ssI1050
(dp5
I850
F0.002570788030407623
sI900
F0.002193972815478472
sI950
F0.0028192718929828486
ssI800
(dp6
I100
F0.025779179676998176
sI200
F0.020271766146014267
sI10
F0.02061637696701138
sI75
F0.020865993673182138
sI300
F0.02257423533604016
sI400
F0.02274863192710354
sI50
F0.022573749682527428
sI500
F0.019810661398242498
sI600
F0.01783339921031059
sI25
F0.021063582144145387
sI700
F0.02126387910825048
sI650
F0.014601346749472877
ssI550
(dp7
I400
F0.2000156547519573
sI450
F0.17888384824296288
sI350
F0.1639250516591831
ssI1450
(dp8
I1250
F0.0002548136519549377
sI1300
F0.00018342031545112342
sI1350
F0.00020847104429526245
ssI300
(dp9
I200
F4.02405054586348
sI10
F4.436385845836643
sI100
F4.316055400066066
sI150
F4.32039225593652
ssI1200
(dp10
I800
F0.0012079253898781331
sI100
F0.0011222041191581592
sI200
F0.0015591845536868801
sI1100
F0.001031431884831987
sI10
F0.0012065821216310762
sI75
F0.001392648676218267
sI300
F0.0012539216743100922
sI400
F0.0013753342525954114
sI1000
F0.0009031733585677317
sI50
F0.0011812490271866569
sI500
F0.0013701164012398556
sI600
F0.0013212656027544367
sI25
F0.0012508911097237024
sI900
F0.0011682270716788297
sI700
F0.0013281994117187456
sI1050
F0.0009558308470366743
ssI950
(dp11
I800
F0.005056213795067563
sI850
F0.005633938545790027
sI750
F0.005792178325434592
ssI700
(dp12
I100
F0.04974727592246032
sI550
F0.0361553978682929
sI200
F0.05435349118886592
sI10
F0.05391451534105506
sI300
F0.04591889679415091
sI400
F0.04230743349089144
sI500
F0.04198603579206146
sI600
F0.04079471642373593
ssI450
(dp13
I250
F0.48610529709290107
sI300
F0.5571037658220143
sI350
F0.5475708942367821
ssI1350
(dp14
I1200
F0.0003782356251785011
sI1250
F0.0004125131149159634
sI1150
F0.0004161325671516922
ssI1100
(dp15
I800
F0.002385408260622051
sI100
F0.002474988830648923
sI200
F0.00239953562582705
sI10
F0.0026667896597475714
sI75
F0.0025856346344832527
sI300
F0.002439762817229763
sI400
F0.0025710660783014104
sI1000
F0.002227447340904539
sI50
F0.002249367564693097
sI500
F0.002512809757550339
sI950
F0.001917696233996161
sI600
F0.0022454572604242843
sI25
F0.0022870092635655067
sI900
F0.0022710769206415265
sI700
F0.002267116965200934
ssI850
(dp16
I650
F0.012081631975631035
sI700
F0.01615695910234209
sI750
F0.011831049280483447
ssI600
(dp17
I450
F0.10267967928343802
sI100
F0.1564048417399892
sI200
F0.12165116926424528
sI10
F0.13047029398748353
sI300
F0.12629359805441365
sI400
F0.09556510604830054
sI500
F0.10133307499835768
ssI1500
(dp18
I800
F0.00019919932123207263
sI1200
F0.00020971697494587486
sI100
F0.00018628539790995876
sI1350
F0.00014944883104314887
sI1300
F0.000190343613014775
sI1400
F0.000169379523162664
sI200
F0.00019295663808239743
sI1100
F0.00021578324069049078
sI10
F0.00018063669229312715
sI75
F0.00017106151072973305
sI300
F0.00018456572331198616
sI400
F0.00016810811380319496
sI1000
F0.00023935936045054143
sI50
F0.0002050707471871707
sI500
F0.00021276013759400286
sI600
F0.00019979046298274452
sI25
F0.00017751857332112765
sI900
F0.00018960658117038445
sI700
F0.00019284448481332307
ssI350
(dp19
I200
F2.0063371213333814
sI250
F2.1465364891188363
sI150
F2.404789071541694
ssI1250
(dp20
I1050
F0.0007745015233333253
sI1100
F0.0006512734151894066
sI1150
F0.0008356769177348081
ssI1000
(dp21
I800
F0.003642096153308394
sI100
F0.0048375594945855955
sI200
F0.004764167679840041
sI10
F0.005385797560909411
sI75
F0.004764521135514292
sI300
F0.004969535136387447
sI850
F0.0035213961047076527
sI400
F0.0049841679576926165
sI50
F0.004907002919519799
sI500
F0.0053862023416610325
sI600
F0.004889306352219522
sI25
F0.005286192089905861
sI900
F0.004418191743295327
sI700
F0.004538585028433726
ssI750
(dp22
I600
F0.027147717659050066
sI650
F0.026927801714085247
sI550
F0.02765761886995233
ssI500
(dp23
I100
F0.3452202494196223
sI200
F0.3377736913525326
sI10
F0.3654327528699534
sI300
F0.3594899361702117
sI400
F0.27528833933644076
sI350
F0.2850344155900678
ssI1400
(dp24
I800
F0.0003601892513869422
sI1200
F0.00026992460940262314
sI1250
F0.00030148082254088184
sI100
F0.00033020621235636485
sI1300
F0.0003274127535728059
sI200
F0.00039887514093203083
sI1100
F0.00031039216788414543
sI10
F0.00034880717163938144
sI75
F0.0003135961747453675
sI300
F0.00034726539018956645
sI400
F0.0003605013048319961
sI1000
F0.00033655119627522945
sI50
F0.0003282439965759843
sI500
F0.00042101171676813605
sI600
F0.00038009634512264185
sI25
F0.000362417616642381
sI900
F0.00034145741234474405
sI700
F0.000360937155163427
ssI1150
(dp25
I1000
F0.0013723672207893584
sI1050
F0.001668767397847919
sI950
F0.0014345331057730546
ss.