(dp0
S'EM'
p1
(dp2
S'DeltaPhiL1G'
p3
(F0.8041446623465688
cnumpy.core.multiarray
scalar
p4
(cnumpy
dtype
p5
(S'f8'
p6
I0
I1
tp7
Rp8
(I3
S'<'
p9
NNNI-1
I-1
I0
tp10
bS'p\x0c9\x87\xd9\x1f\xa1?'
p11
tp12
Rp13
tp14
sS'm_ll'
p15
(F0.8041446380055566
g4
(g8
S'^k\xc6\x86\xd9\x1f\xa1?'
p16
tp17
Rp18
tp19
sS'eta1'
p20
(F0.8041446088729224
g4
(g8
S'Mo\\\x86\xd9\x1f\xa1?'
p21
tp22
Rp23
tp24
sS'eta2'
p25
(F0.804144607701682
g4
(g8
S'e\x97\xc6\x86\xd9\x1f\xa1?'
p26
tp27
Rp28
tp29
sS'DeltaPhiL2G'
p30
(F0.8041446734661729
g4
(g8
S'\xda\x1f\x16\x87\xd9\x1f\xa1?'
p31
tp32
Rp33
tp34
sS'mt2'
p35
(F0.8041446667538958
g4
(g8
S'\xa1U-\x86\xd9\x1f\xa1?'
p36
tp37
Rp38
tp39
sS'm_l1g'
p40
(F0.8041446393811383
g4
(g8
S']\x07\xf6\x86\xd9\x1f\xa1?'
p41
tp42
Rp43
tp44
sS'm_llg'
p45
(F0.8041446047698156
g4
(g8
S'D`P\x87\xd9\x1f\xa1?'
p46
tp47
Rp48
tp49
sS'ht'
p50
(F0.8041447035602587
g4
(g8
S'\x92\xc2(\x89\xd9\x1f\xa1?'
p51
tp52
Rp53
tp54
sS'met'
p55
(F0.8041446371250318
g4
(g8
S'2\xfe1\x88\xd9\x1f\xa1?'
p56
tp57
Rp58
tp59
sS'pt_g1'
p60
(F0.8041448272501629
g4
(g8
S'u2\xbf\x85\xd9\x1f\xa1?'
p61
tp62
Rp63
tp64
sS'phi2'
p65
(F0.8041446564607053
g4
(g8
S'V\xe9\xc5\x86\xd9\x1f\xa1?'
p66
tp67
Rp68
tp69
sS'phi1'
p70
(F0.8041446564607053
g4
(g8
S'V\xe9\xc5\x86\xd9\x1f\xa1?'
p71
tp72
Rp73
tp74
sS'm_l2g'
p75
(F0.8041446545328002
g4
(g8
S'>\x7f\xd2\x86\xd9\x1f\xa1?'
p76
tp77
Rp78
tp79
sS'deltaPhiLLG'
p80
(F0.8041446521226195
g4
(g8
S'N\xcb\n\x87\xd9\x1f\xa1?'
p81
tp82
Rp83
tp84
sS'n_jets'
p85
(F0.8041448886009757
g4
(g8
S'\xbc-\x18\x8a\xd9\x1f\xa1?'
p86
tp87
Rp88
tp89
sS'pt2'
p90
(F0.8041447913513674
g4
(g8
S'Y\xb7\x10\x87\xd9\x1f\xa1?'
p91
tp92
Rp93
tp94
sS'pt1'
p95
(F0.8041446890717416
g4
(g8
S'\xac;"\x86\xd9\x1f\xa1?'
p96
tp97
Rp98
tp99
sS'n_photons'
p100
(F0.8041391441585009
g4
(g8
S'\x9b\xa5#w\xd9\x1f\xa1?'
p101
tp102
Rp103
tp104
ss.