(dp0
S'EM'
p1
(dp2
S'DeltaPhiL1G'
p3
(F0.8027513518815147
cnumpy.core.multiarray
scalar
p4
(cnumpy
dtype
p5
(S'f8'
p6
I0
I1
tp7
Rp8
(I3
S'<'
p9
NNNI-1
I-1
I0
tp10
bS'\xb2\xe0\xe8\x06\x18\xbc\xa0?'
p11
tp12
Rp13
tp14
sS'm_ll'
p15
(F0.8027513267516904
g4
(g8
S'X\xa8\x9a\x07\x18\xbc\xa0?'
p16
tp17
Rp18
tp19
sS'eta1'
p20
(F0.8027513764304239
g4
(g8
S'\xd43%\x07\x18\xbc\xa0?'
p21
tp22
Rp23
tp24
sS'eta2'
p25
(F0.8027513714673024
g4
(g8
S'-\x8f\xf8\x06\x18\xbc\xa0?'
p26
tp27
Rp28
tp29
sS'DeltaPhiL2G'
p30
(F0.8027513472702232
g4
(g8
S'}S\xc2\x06\x18\xbc\xa0?'
p31
tp32
Rp33
tp34
sS'mt2'
p35
(F0.8027513652536516
g4
(g8
S'z\x98\xeb\x06\x18\xbc\xa0?'
p36
tp37
Rp38
tp39
sS'eta_g1'
p40
(F0.8027501585302071
g4
(g8
S'P\xca!\x03\x18\xbc\xa0?'
p41
tp42
Rp43
tp44
sS'm_l1g'
p45
(F0.8027513438553607
g4
(g8
S'\xb9\xda\xc6\x06\x18\xbc\xa0?'
p46
tp47
Rp48
tp49
sS'm_llg'
p50
(F0.8027513461009549
g4
(g8
S'QQ\xb4\x06\x18\xbc\xa0?'
p51
tp52
Rp53
tp54
sS'ht'
p55
(F0.8027513597542073
g4
(g8
S'0z^\x07\x18\xbc\xa0?'
p56
tp57
Rp58
tp59
sS'met'
p60
(F0.8027513753826051
g4
(g8
S'\x07\x15*\x08\x18\xbc\xa0?'
p61
tp62
Rp63
tp64
sS'pt_g1'
p65
(F0.8027512987044342
g4
(g8
S'U\x12\xba\x08\x18\xbc\xa0?'
p66
tp67
Rp68
tp69
sS'phi2'
p70
(F0.8027513530739235
g4
(g8
S'I\x8f\xa9\x07\x18\xbc\xa0?'
p71
tp72
Rp73
tp74
sS'phi1'
p75
(F0.8027513530739235
g4
(g8
S'I\x8f\xa9\x07\x18\xbc\xa0?'
p76
tp77
Rp78
tp79
sS'm_l2g'
p80
(F0.8027513198914963
g4
(g8
S'\xbb\x8c\xc6\x06\x18\xbc\xa0?'
p81
tp82
Rp83
tp84
sS'deltaPhiLLG'
p85
(F0.8027513345436258
g4
(g8
S"+'\xac\x07\x18\xbc\xa0?"
p86
tp87
Rp88
tp89
sS'n_jets'
p90
(F0.8027522934594398
g4
(g8
S'\x9f\xae\x12\n\x18\xbc\xa0?'
p91
tp92
Rp93
tp94
sS'pt2'
p95
(F0.8027513801326615
g4
(g8
S'n\x04\x11\x08\x18\xbc\xa0?'
p96
tp97
Rp98
tp99
sS'pt1'
p100
(F0.8027513685185496
g4
(g8
S'\xf2Mk\x07\x18\xbc\xa0?'
p101
tp102
Rp103
tp104
sS'n_photons'
p105
(F0.802746423521357
g4
(g8
S'\x05<\xb7\xf6\x17\xbc\xa0?'
p106
tp107
Rp108
tp109
ss.