(dp0
S'LL'
p1
(dp2
S'm_ll'
p3
(F1.0994536462262436
cnumpy.core.multiarray
scalar
p4
(cnumpy
dtype
p5
(S'f8'
p6
I0
I1
tp7
Rp8
(I3
S'<'
p9
NNNI-1
I-1
I0
tp10
bS'\x9aO:\xa40F\xb0?'
p11
tp12
Rp13
tp14
sS'eta1'
p15
(F1.0994511832033222
g4
(g8
S'\xbfP\xd8\xa30F\xb0?'
p16
tp17
Rp18
tp19
sS'eta2'
p20
(F1.0994512155440832
g4
(g8
S'{\x89\xd9\xa30F\xb0?'
p21
tp22
Rp23
tp24
sS'mt2'
p25
(F1.0994511103401803
g4
(g8
S'\xaa\xb1\xdb\xa30F\xb0?'
p26
tp27
Rp28
tp29
sS'ht'
p30
(F1.099467559448641
g4
(g8
S'lW:\xa60F\xb0?'
p31
tp32
Rp33
tp34
sS'met'
p35
(F1.0994513815566989
g4
(g8
S'0>\xe1\xa30F\xb0?'
p36
tp37
Rp38
tp39
sS'phi2'
p40
(F1.0994511508759004
g4
(g8
S'\x11?\xd6\xa30F\xb0?'
p41
tp42
Rp43
tp44
sS'phi1'
p45
(F1.0994511554164994
g4
(g8
S'\xffx\xdb\xa30F\xb0?'
p46
tp47
Rp48
tp49
sS'm_ll2'
p50
(F1.0994501460966264
g4
(g8
S'@[\xaa\xa30F\xb0?'
p51
tp52
Rp53
tp54
sS'n_jets'
p55
(F1.0994658522140484
g4
(g8
S'\xe0\x14\x12\xa60F\xb0?'
p56
tp57
Rp58
tp59
sS'pt2'
p60
(F1.0994511981366013
g4
(g8
S'\xe9\x18\xde\xa30F\xb0?'
p61
tp62
Rp63
tp64
sS'pt1'
p65
(F1.0994512371936622
g4
(g8
S'\xb7\xcf\xda\xa30F\xb0?'
p66
tp67
Rp68
tp69
sS'n_photons'
p70
(F1.099493286330682
g4
(g8
S'\x12s\x07\xaa0F\xb0?'
p71
tp72
Rp73
tp74
ss.