(dp0
S'LL'
p1
(dp2
S'm_ll'
p3
(F1.4773074618123816
cnumpy.core.multiarray
scalar
p4
(cnumpy
dtype
p5
(S'f8'
p6
I0
I1
tp7
Rp8
(I3
S'<'
p9
NNNI-1
I-1
I0
tp10
bS'\xd3\xeb\x12\x11/\xbe\xb0?'
p11
tp12
Rp13
tp14
sS'eta1'
p15
(F1.47731080115214
g4
(g8
S'\xad\xc9j\x11/\xbe\xb0?'
p16
tp17
Rp18
tp19
sS'eta2'
p20
(F1.4773108143608011
g4
(g8
S'\x98\xb9k\x11/\xbe\xb0?'
p21
tp22
Rp23
tp24
sS'mt2'
p25
(F1.4773107839885107
g4
(g8
S'\x9a\x8fn\x11/\xbe\xb0?'
p26
tp27
Rp28
tp29
sS'ht'
p30
(F1.477343429951586
g4
(g8
S'\xdfM\x01\x15/\xbe\xb0?'
p31
tp32
Rp33
tp34
sS'met'
p35
(F1.4773109745623056
g4
(g8
S'\xc5kg\x11/\xbe\xb0?'
p36
tp37
Rp38
tp39
sS'phi2'
p40
(F1.47731084741814
g4
(g8
S'\xf8Tl\x11/\xbe\xb0?'
p41
tp42
Rp43
tp44
sS'phi1'
p45
(F1.4773108825317567
g4
(g8
S'>(t\x11/\xbe\xb0?'
p46
tp47
Rp48
tp49
sS'm_ll2'
p50
(F1.4773110785515517
g4
(g8
S'E\x9e}\x11/\xbe\xb0?'
p51
tp52
Rp53
tp54
sS'n_jets'
p55
(F1.4773440152322326
g4
(g8
S'\x06\xc8\x19\x15/\xbe\xb0?'
p56
tp57
Rp58
tp59
sS'pt2'
p60
(F1.477310957181789
g4
(g8
S'\xda&\x83\x11/\xbe\xb0?'
p61
tp62
Rp63
tp64
sS'pt1'
p65
(F1.477310723812258
g4
(g8
S'\xe4es\x11/\xbe\xb0?'
p66
tp67
Rp68
tp69
sS'n_photons'
p70
(F1.4773492946589617
g4
(g8
S'\x93\x17\x9b\x15/\xbe\xb0?'
p71
tp72
Rp73
tp74
ss.