(dp0
S'LL'
p1
(dp2
S'm_ll'
p3
(F1.0991749410046576
cnumpy.core.multiarray
scalar
p4
(cnumpy
dtype
p5
(S'f8'
p6
I0
I1
tp7
Rp8
(I3
S'<'
p9
NNNI-1
I-1
I0
tp10
bS'\xecM\x97|\xbdG\xb0?'
p11
tp12
Rp13
tp14
sS'eta1'
p15
(F1.0991724786430517
g4
(g8
S'\x03\xfe2|\xbdG\xb0?'
p16
tp17
Rp18
tp19
sS'eta2'
p20
(F1.0991725108853327
g4
(g8
S'\x06\xf49|\xbdG\xb0?'
p21
tp22
Rp23
tp24
sS'mt2'
p25
(F1.0991724058004075
g4
(g8
S'\xc8>6|\xbdG\xb0?'
p26
tp27
Rp28
tp29
sS'ht'
p30
(F1.099188850551938
g4
(g8
S'R\x8e\xa0~\xbdG\xb0?'
p31
tp32
Rp33
tp34
sS'met'
p35
(F1.099172676963582
g4
(g8
S'\x1d\xcf:|\xbdG\xb0?'
p36
tp37
Rp38
tp39
sS'phi2'
p40
(F1.099172446212515
g4
(g8
S'\x00\x008|\xbdG\xb0?'
p41
tp42
Rp43
tp44
sS'phi1'
p45
(F1.0991724508827485
g4
(g8
S'\xc9\xe94|\xbdG\xb0?'
p46
tp47
Rp48
tp49
sS'm_ll2'
p50
(F1.0991714415653724
g4
(g8
S'5\xea\x13|\xbdG\xb0?'
p51
tp52
Rp53
tp54
sS'n_jets'
p55
(F1.0991871441814312
g4
(g8
S'y\xe8\\~\xbdG\xb0?'
p56
tp57
Rp58
tp59
sS'pt2'
p60
(F1.0991724936094576
g4
(g8
S'\xdam6|\xbdG\xb0?'
p61
tp62
Rp63
tp64
sS'pt1'
p65
(F1.0991725324765869
g4
(g8
S'-\x96>|\xbdG\xb0?'
p66
tp67
Rp68
tp69
sS'n_photons'
p70
(F1.0992145708348924
g4
(g8
S'O:r\x82\xbdG\xb0?'
p71
tp72
Rp73
tp74
ss.