(dp0
S'ee'
p1
(dp2
S'data'
p3
F0.9605712723793904
sS'mc'
p4
F0.9661846713544919
sS'factor'
p5
F0.9941901386541021
ssS'em'
p6
(dp7
g3
F0.8686807653575025
sg4
F0.9192329924074364
sg5
F0.9450060784725105
ssS'mm'
p8
(dp9
g3
F0.9255870979911346
sg4
F0.9771135413954908
sg5
F0.9472666775953515
ss.