(dp0
S'LL'
p1
(dp2
S'm_ll'
p3
(F1.1143615348441034
cnumpy.core.multiarray
scalar
p4
(cnumpy
dtype
p5
(S'f8'
p6
I0
I1
tp7
Rp8
(I3
S'<'
p9
NNNI-1
I-1
I0
tp10
bS'\xc0\xf1b\x86t\xab\x83?'
p11
tp12
Rp13
tp14
sS'eta1'
p15
(F1.1143614583234616
g4
(g8
S'\x1f\x1e\xcevt\xab\x83?'
p16
tp17
Rp18
tp19
sS'eta2'
p20
(F1.1143614790705092
g4
(g8
S'\x0c1\r{t\xab\x83?'
p21
tp22
Rp23
tp24
sS'mt2'
p25
(F1.1143615106798508
g4
(g8
S'1I\xaa\x81t\xab\x83?'
p26
tp27
Rp28
tp29
sS'ht'
p30
(F1.1143578133343832
g4
(g8
S'\xad;}~q\xab\x83?'
p31
tp32
Rp33
tp34
sS'met'
p35
(F1.1143615325656322
g4
(g8
S'v\xb6>\x86t\xab\x83?'
p36
tp37
Rp38
tp39
sS'pt_g1'
p40
(F1.1143615695424045
g4
(g8
S'8\xf0\xef\x8dt\xab\x83?'
p41
tp42
Rp43
tp44
sS'phi2'
p45
(F1.114361476879537
g4
(g8
S'6\x17\xa3zt\xab\x83?'
p46
tp47
Rp48
tp49
sS'phi1'
p50
(F1.114361476879537
g4
(g8
S'6\x17\xa3zt\xab\x83?'
p51
tp52
Rp53
tp54
sS'n_jets'
p55
(F1.1143580907729524
g4
(g8
S'\x03ah\xb8q\xab\x83?'
p56
tp57
Rp58
tp59
sS'pt2'
p60
(F1.1143613867144613
g4
(g8
S'a=\xddgt\xab\x83?'
p61
tp62
Rp63
tp64
sS'pt1'
p65
(F1.1143613710460425
g4
(g8
S'\xae\xc8\xb2dt\xab\x83?'
p66
tp67
Rp68
tp69
sS'n_photons'
p70
(F1.1143538683024858
g4
(g8
S'\x1d3\x94Dn\xab\x83?'
p71
tp72
Rp73
tp74
ss.