(dp0
S'LL'
p1
(dp2
S'm_ll'
p3
(F1.065562284206829
cnumpy.core.multiarray
scalar
p4
(cnumpy
dtype
p5
(S'f8'
p6
I0
I1
tp7
Rp8
(I3
S'<'
p9
NNNI-1
I-1
I0
tp10
bS'C\xe0\x8b\x89\x04\xfc\x82?'
p11
tp12
Rp13
tp14
sS'eta1'
p15
(F1.0655623406658818
g4
(g8
S'\xda\xf35\x95\x04\xfc\x82?'
p16
tp17
Rp18
tp19
sS'eta2'
p20
(F1.065562345797047
g4
(g8
S':\xcb^\x96\x04\xfc\x82?'
p21
tp22
Rp23
tp24
sS'mt2'
p25
(F1.0655622806865934
g4
(g8
S'K\xca\xe1\x88\x04\xfc\x82?'
p26
tp27
Rp28
tp29
sS'eta_g1'
p30
(F1.0655597733030313
g4
(g8
S'\xaa\x9eV\x85\x02\xfc\x82?'
p31
tp32
Rp33
tp34
sS'ht'
p35
(F1.0655583431893272
g4
(g8
S'\xd3\xe4~[\x01\xfc\x82?'
p36
tp37
Rp38
tp39
sS'met'
p40
(F1.0655623285001843
g4
(g8
S'\xe8\xcd\xb5\x92\x04\xfc\x82?'
p41
tp42
Rp43
tp44
sS'pt_g1'
p45
(F1.0655620890306898
g4
(g8
S'\xb6\xdeKa\x04\xfc\x82?'
p46
tp47
Rp48
tp49
sS'phi2'
p50
(F1.0655622984865152
g4
(g8
S'\x0eX\x95\x8c\x04\xfc\x82?'
p51
tp52
Rp53
tp54
sS'phi1'
p55
(F1.0655622984865152
g4
(g8
S'\x0eX\x95\x8c\x04\xfc\x82?'
p56
tp57
Rp58
tp59
sS'n_jets'
p60
(F1.065558350465628
g4
(g8
S'\x90\xc5j^\x01\xfc\x82?'
p61
tp62
Rp63
tp64
sS'pt2'
p65
(F1.0655621064184284
g4
(g8
S'\xcc\xc6\xcbd\x04\xfc\x82?'
p66
tp67
Rp68
tp69
sS'pt1'
p70
(F1.065562233045216
g4
(g8
S'\x8cf\x1b\x7f\x04\xfc\x82?'
p71
tp72
Rp73
tp74
sS'n_photons'
p75
(F1.0655588143255235
g4
(g8
S'\x0b\x1d\xa8\xbf\x01\xfc\x82?'
p76
tp77
Rp78
tp79
ss.