(dp0
S'LL'
p1
(dp2
S'm_ll'
p3
(F1.1382007671868515
cnumpy.core.multiarray
scalar
p4
(cnumpy
dtype
p5
(S'f8'
p6
I0
I1
tp7
Rp8
(I3
S'<'
p9
NNNI-1
I-1
I0
tp10
bS'\xa2\xa4\xa0\xef5\xd1\xa2?'
p11
tp12
Rp13
tp14
sS'eta1'
p15
(F1.1382013812085028
g4
(g8
S')\xe0\x14\xf05\xd1\xa2?'
p16
tp17
Rp18
tp19
sS'eta2'
p20
(F1.138201420462677
g4
(g8
S'ie\xae\xee5\xd1\xa2?'
p21
tp22
Rp23
tp24
sS'mt2'
p25
(F1.1382013952776713
g4
(g8
S'\xc8\x1f\xab\xf15\xd1\xa2?'
p26
tp27
Rp28
tp29
sS'ht'
p30
(F1.1382018833276473
g4
(g8
S'\xc2\xcc\xbd\xdb5\xd1\xa2?'
p31
tp32
Rp33
tp34
sS'met'
p35
(F1.1382015264312741
g4
(g8
S'\xda\xb2\x84\xf25\xd1\xa2?'
p36
tp37
Rp38
tp39
sS'phi2'
p40
(F1.138201365692976
g4
(g8
S'\xa3*P\xef5\xd1\xa2?'
p41
tp42
Rp43
tp44
sS'phi1'
p45
(F1.1382013694755582
g4
(g8
S':\xa5\x9d\xef5\xd1\xa2?'
p46
tp47
Rp48
tp49
sS'n_jets'
p50
(F1.1382032430762428
g4
(g8
S'\xe5\x85\xec\xde5\xd1\xa2?'
p51
tp52
Rp53
tp54
sS'pt2'
p55
(F1.13820138008316
g4
(g8
S'\xb5\xf7\x8a\xee5\xd1\xa2?'
p56
tp57
Rp58
tp59
sS'pt1'
p60
(F1.1382013226470684
g4
(g8
S'\xb4\xb1\x19\xef5\xd1\xa2?'
p61
tp62
Rp63
tp64
sS'n_photons'
p65
(F1.1381959804787514
g4
(g8
S'\x0b\xb0I\xc45\xd1\xa2?'
p66
tp67
Rp68
tp69
ss.