(dp0
S'LL'
p1
(dp2
S'm_ll'
p3
(F1.2393189935528204
cnumpy.core.multiarray
scalar
p4
(cnumpy
dtype
p5
(S'f8'
p6
I0
I1
tp7
Rp8
(I3
S'<'
p9
NNNI-1
I-1
I0
tp10
bS'\xc7\xc2\x0f\xb3\xcf\xdb\xa4?'
p11
tp12
Rp13
tp14
sS'eta1'
p15
(F1.2393189025243923
g4
(g8
S'\x19\x84(\xb0\xcf\xdb\xa4?'
p16
tp17
Rp18
tp19
sS'eta2'
p20
(F1.239318885079612
g4
(g8
S'\xbb\t\xa9\xb0\xcf\xdb\xa4?'
p21
tp22
Rp23
tp24
sS'mt2'
p25
(F1.2393188974654668
g4
(g8
S'\x94\x9c \xb2\xcf\xdb\xa4?'
p26
tp27
Rp28
tp29
sS'ht'
p30
(F1.2393200622479403
g4
(g8
S'k\xdd\xba\x9d\xcf\xdb\xa4?'
p31
tp32
Rp33
tp34
sS'met'
p35
(F1.2393186955808575
g4
(g8
S'\xe4\x02R\xb0\xcf\xdb\xa4?'
p36
tp37
Rp38
tp39
sS'phi2'
p40
(F1.2393189023406148
g4
(g8
S'\xb5\xb2\x16\xb1\xcf\xdb\xa4?'
p41
tp42
Rp43
tp44
sS'phi1'
p45
(F1.2393188931741843
g4
(g8
S'\xc6\xe2\x95\xb0\xcf\xdb\xa4?'
p46
tp47
Rp48
tp49
sS'n_jets'
p50
(F1.2393198813645199
g4
(g8
S'\x9b\x03G\x91\xcf\xdb\xa4?'
p51
tp52
Rp53
tp54
sS'pt2'
p55
(F1.2393189390853132
g4
(g8
S'"\x8ak\xb2\xcf\xdb\xa4?'
p56
tp57
Rp58
tp59
sS'pt1'
p60
(F1.2393188415374847
g4
(g8
S'\x8clI\xaf\xcf\xdb\xa4?'
p61
tp62
Rp63
tp64
sS'n_photons'
p65
(F1.239325130889309
g4
(g8
S'#\x88\xb54\xd0\xdb\xa4?'
p66
tp67
Rp68
tp69
ss.